	.file	"function_pointer_test.c"
	.text
	.globl	myfunc
	.type	myfunc, @function
myfunc:
.LFB0:
	.cfi_startproc
	endbr64
	pushq	%rbp
	.cfi_def_cfa_offset 16
	.cfi_offset 6, -16
	movq	%rsp, %rbp
	.cfi_def_cfa_register 6
	movl	%edi, -20(%rbp)
	movl	$0, -8(%rbp)
	movl	$1, -4(%rbp)
	jmp	.L2
.L3:
	movl	-4(%rbp), %eax
	imull	%eax, %eax
	movl	%eax, %edx
	movl	-8(%rbp), %eax
	addl	%edx, %eax
	movl	%eax, -8(%rbp)
	addl	$1, -4(%rbp)
.L2:
	movl	-4(%rbp), %eax
	cmpl	%eax, -20(%rbp)
	jnb	.L3
	movl	-8(%rbp), %eax
	popq	%rbp
	.cfi_def_cfa 7, 8
	ret
	.cfi_endproc
.LFE0:
	.size	myfunc, .-myfunc
	.section	.rodata
.LC0:
	.string	"\346\265\213\350\257\2251: pfun = myfunc"
.LC1:
	.string	"pfun(10) = %d\n"
.LC2:
	.string	"(*pfun)(10) = %d\n"
.LC3:
	.string	"\n\346\265\213\350\257\2252: pfun = &myfunc"
	.text
	.globl	main
	.type	main, @function
main:
.LFB1:
	.cfi_startproc
	endbr64
	pushq	%rbp
	.cfi_def_cfa_offset 16
	.cfi_offset 6, -16
	movq	%rsp, %rbp
	.cfi_def_cfa_register 6
	subq	$16, %rsp
	leaq	.LC0(%rip), %rax
	movq	%rax, %rdi
	call	puts@PLT
	leaq	myfunc(%rip), %rax
	movq	%rax, -8(%rbp)
	movq	-8(%rbp), %rax
	movl	$10, %edi
	call	*%rax
	movl	%eax, %esi
	leaq	.LC1(%rip), %rax
	movq	%rax, %rdi
	movl	$0, %eax
	call	printf@PLT
	movq	-8(%rbp), %rax
	movl	$10, %edi
	call	*%rax
	movl	%eax, %esi
	leaq	.LC2(%rip), %rax
	movq	%rax, %rdi
	movl	$0, %eax
	call	printf@PLT
	leaq	.LC3(%rip), %rax
	movq	%rax, %rdi
	call	puts@PLT
	leaq	myfunc(%rip), %rax
	movq	%rax, -8(%rbp)
	movq	-8(%rbp), %rax
	movl	$10, %edi
	call	*%rax
	movl	%eax, %esi
	leaq	.LC1(%rip), %rax
	movq	%rax, %rdi
	movl	$0, %eax
	call	printf@PLT
	movq	-8(%rbp), %rax
	movl	$10, %edi
	call	*%rax
	movl	%eax, %esi
	leaq	.LC2(%rip), %rax
	movq	%rax, %rdi
	movl	$0, %eax
	call	printf@PLT
	movl	$0, %eax
	leave
	.cfi_def_cfa 7, 8
	ret
	.cfi_endproc
.LFE1:
	.size	main, .-main
	.ident	"GCC: (Ubuntu 13.3.0-6ubuntu2~24.04) 13.3.0"
	.section	.note.GNU-stack,"",@progbits
	.section	.note.gnu.property,"a"
	.align 8
	.long	1f - 0f
	.long	4f - 1f
	.long	5
0:
	.string	"GNU"
1:
	.align 8
	.long	0xc0000002
	.long	3f - 2f
2:
	.long	0x3
3:
	.align 8
4:
