
rtarget:     file format elf64-x86-64


Disassembly of section .init:

0000000000400b88 <_init>:
  400b88:	48 83 ec 08          	sub    $0x8,%rsp
  400b8c:	48 8b 05 65 44 20 00 	mov    0x204465(%rip),%rax        # 604ff8 <__gmon_start__>
  400b93:	48 85 c0             	test   %rax,%rax
  400b96:	74 05                	je     400b9d <_init+0x15>
  400b98:	e8 13 02 00 00       	call   400db0 <__gmon_start__@plt>
  400b9d:	48 83 c4 08          	add    $0x8,%rsp
  400ba1:	c3                   	ret

Disassembly of section .plt:

0000000000400bb0 <.plt>:
  400bb0:	ff 35 52 44 20 00    	push   0x204452(%rip)        # 605008 <_GLOBAL_OFFSET_TABLE_+0x8>
  400bb6:	ff 25 54 44 20 00    	jmp    *0x204454(%rip)        # 605010 <_GLOBAL_OFFSET_TABLE_+0x10>
  400bbc:	0f 1f 40 00          	nopl   0x0(%rax)

0000000000400bc0 <__errno_location@plt>:
  400bc0:	ff 25 52 44 20 00    	jmp    *0x204452(%rip)        # 605018 <__errno_location@GLIBC_2.2.5>
  400bc6:	68 00 00 00 00       	push   $0x0
  400bcb:	e9 e0 ff ff ff       	jmp    400bb0 <.plt>

0000000000400bd0 <srandom@plt>:
  400bd0:	ff 25 4a 44 20 00    	jmp    *0x20444a(%rip)        # 605020 <srandom@GLIBC_2.2.5>
  400bd6:	68 01 00 00 00       	push   $0x1
  400bdb:	e9 d0 ff ff ff       	jmp    400bb0 <.plt>

0000000000400be0 <strncmp@plt>:
  400be0:	ff 25 42 44 20 00    	jmp    *0x204442(%rip)        # 605028 <strncmp@GLIBC_2.2.5>
  400be6:	68 02 00 00 00       	push   $0x2
  400beb:	e9 c0 ff ff ff       	jmp    400bb0 <.plt>

0000000000400bf0 <strcpy@plt>:
  400bf0:	ff 25 3a 44 20 00    	jmp    *0x20443a(%rip)        # 605030 <strcpy@GLIBC_2.2.5>
  400bf6:	68 03 00 00 00       	push   $0x3
  400bfb:	e9 b0 ff ff ff       	jmp    400bb0 <.plt>

0000000000400c00 <puts@plt>:
  400c00:	ff 25 32 44 20 00    	jmp    *0x204432(%rip)        # 605038 <puts@GLIBC_2.2.5>
  400c06:	68 04 00 00 00       	push   $0x4
  400c0b:	e9 a0 ff ff ff       	jmp    400bb0 <.plt>

0000000000400c10 <write@plt>:
  400c10:	ff 25 2a 44 20 00    	jmp    *0x20442a(%rip)        # 605040 <write@GLIBC_2.2.5>
  400c16:	68 05 00 00 00       	push   $0x5
  400c1b:	e9 90 ff ff ff       	jmp    400bb0 <.plt>

0000000000400c20 <__stack_chk_fail@plt>:
  400c20:	ff 25 22 44 20 00    	jmp    *0x204422(%rip)        # 605048 <__stack_chk_fail@GLIBC_2.4>
  400c26:	68 06 00 00 00       	push   $0x6
  400c2b:	e9 80 ff ff ff       	jmp    400bb0 <.plt>

0000000000400c30 <mmap@plt>:
  400c30:	ff 25 1a 44 20 00    	jmp    *0x20441a(%rip)        # 605050 <mmap@GLIBC_2.2.5>
  400c36:	68 07 00 00 00       	push   $0x7
  400c3b:	e9 70 ff ff ff       	jmp    400bb0 <.plt>

0000000000400c40 <memset@plt>:
  400c40:	ff 25 12 44 20 00    	jmp    *0x204412(%rip)        # 605058 <memset@GLIBC_2.2.5>
  400c46:	68 08 00 00 00       	push   $0x8
  400c4b:	e9 60 ff ff ff       	jmp    400bb0 <.plt>

0000000000400c50 <alarm@plt>:
  400c50:	ff 25 0a 44 20 00    	jmp    *0x20440a(%rip)        # 605060 <alarm@GLIBC_2.2.5>
  400c56:	68 09 00 00 00       	push   $0x9
  400c5b:	e9 50 ff ff ff       	jmp    400bb0 <.plt>

0000000000400c60 <close@plt>:
  400c60:	ff 25 02 44 20 00    	jmp    *0x204402(%rip)        # 605068 <close@GLIBC_2.2.5>
  400c66:	68 0a 00 00 00       	push   $0xa
  400c6b:	e9 40 ff ff ff       	jmp    400bb0 <.plt>

0000000000400c70 <read@plt>:
  400c70:	ff 25 fa 43 20 00    	jmp    *0x2043fa(%rip)        # 605070 <read@GLIBC_2.2.5>
  400c76:	68 0b 00 00 00       	push   $0xb
  400c7b:	e9 30 ff ff ff       	jmp    400bb0 <.plt>

0000000000400c80 <__libc_start_main@plt>:
  400c80:	ff 25 f2 43 20 00    	jmp    *0x2043f2(%rip)        # 605078 <__libc_start_main@GLIBC_2.2.5>
  400c86:	68 0c 00 00 00       	push   $0xc
  400c8b:	e9 20 ff ff ff       	jmp    400bb0 <.plt>

0000000000400c90 <inet_addr@plt>:
  400c90:	ff 25 ea 43 20 00    	jmp    *0x2043ea(%rip)        # 605080 <inet_addr@GLIBC_2.2.5>
  400c96:	68 0d 00 00 00       	push   $0xd
  400c9b:	e9 10 ff ff ff       	jmp    400bb0 <.plt>

0000000000400ca0 <signal@plt>:
  400ca0:	ff 25 e2 43 20 00    	jmp    *0x2043e2(%rip)        # 605088 <signal@GLIBC_2.2.5>
  400ca6:	68 0e 00 00 00       	push   $0xe
  400cab:	e9 00 ff ff ff       	jmp    400bb0 <.plt>

0000000000400cb0 <strtol@plt>:
  400cb0:	ff 25 da 43 20 00    	jmp    *0x2043da(%rip)        # 605090 <strtol@GLIBC_2.2.5>
  400cb6:	68 0f 00 00 00       	push   $0xf
  400cbb:	e9 f0 fe ff ff       	jmp    400bb0 <.plt>

0000000000400cc0 <memcpy@plt>:
  400cc0:	ff 25 d2 43 20 00    	jmp    *0x2043d2(%rip)        # 605098 <memcpy@GLIBC_2.14>
  400cc6:	68 10 00 00 00       	push   $0x10
  400ccb:	e9 e0 fe ff ff       	jmp    400bb0 <.plt>

0000000000400cd0 <time@plt>:
  400cd0:	ff 25 ca 43 20 00    	jmp    *0x2043ca(%rip)        # 6050a0 <time@GLIBC_2.2.5>
  400cd6:	68 11 00 00 00       	push   $0x11
  400cdb:	e9 d0 fe ff ff       	jmp    400bb0 <.plt>

0000000000400ce0 <random@plt>:
  400ce0:	ff 25 c2 43 20 00    	jmp    *0x2043c2(%rip)        # 6050a8 <random@GLIBC_2.2.5>
  400ce6:	68 12 00 00 00       	push   $0x12
  400ceb:	e9 c0 fe ff ff       	jmp    400bb0 <.plt>

0000000000400cf0 <_IO_getc@plt>:
  400cf0:	ff 25 ba 43 20 00    	jmp    *0x2043ba(%rip)        # 6050b0 <_IO_getc@GLIBC_2.2.5>
  400cf6:	68 13 00 00 00       	push   $0x13
  400cfb:	e9 b0 fe ff ff       	jmp    400bb0 <.plt>

0000000000400d00 <__isoc99_sscanf@plt>:
  400d00:	ff 25 b2 43 20 00    	jmp    *0x2043b2(%rip)        # 6050b8 <__isoc99_sscanf@GLIBC_2.7>
  400d06:	68 14 00 00 00       	push   $0x14
  400d0b:	e9 a0 fe ff ff       	jmp    400bb0 <.plt>

0000000000400d10 <munmap@plt>:
  400d10:	ff 25 aa 43 20 00    	jmp    *0x2043aa(%rip)        # 6050c0 <munmap@GLIBC_2.2.5>
  400d16:	68 15 00 00 00       	push   $0x15
  400d1b:	e9 90 fe ff ff       	jmp    400bb0 <.plt>

0000000000400d20 <__printf_chk@plt>:
  400d20:	ff 25 a2 43 20 00    	jmp    *0x2043a2(%rip)        # 6050c8 <__printf_chk@GLIBC_2.3.4>
  400d26:	68 16 00 00 00       	push   $0x16
  400d2b:	e9 80 fe ff ff       	jmp    400bb0 <.plt>

0000000000400d30 <fopen@plt>:
  400d30:	ff 25 9a 43 20 00    	jmp    *0x20439a(%rip)        # 6050d0 <fopen@GLIBC_2.2.5>
  400d36:	68 17 00 00 00       	push   $0x17
  400d3b:	e9 70 fe ff ff       	jmp    400bb0 <.plt>

0000000000400d40 <getopt@plt>:
  400d40:	ff 25 92 43 20 00    	jmp    *0x204392(%rip)        # 6050d8 <getopt@GLIBC_2.2.5>
  400d46:	68 18 00 00 00       	push   $0x18
  400d4b:	e9 60 fe ff ff       	jmp    400bb0 <.plt>

0000000000400d50 <strtoul@plt>:
  400d50:	ff 25 8a 43 20 00    	jmp    *0x20438a(%rip)        # 6050e0 <strtoul@GLIBC_2.2.5>
  400d56:	68 19 00 00 00       	push   $0x19
  400d5b:	e9 50 fe ff ff       	jmp    400bb0 <.plt>

0000000000400d60 <exit@plt>:
  400d60:	ff 25 82 43 20 00    	jmp    *0x204382(%rip)        # 6050e8 <exit@GLIBC_2.2.5>
  400d66:	68 1a 00 00 00       	push   $0x1a
  400d6b:	e9 40 fe ff ff       	jmp    400bb0 <.plt>

0000000000400d70 <connect@plt>:
  400d70:	ff 25 7a 43 20 00    	jmp    *0x20437a(%rip)        # 6050f0 <connect@GLIBC_2.2.5>
  400d76:	68 1b 00 00 00       	push   $0x1b
  400d7b:	e9 30 fe ff ff       	jmp    400bb0 <.plt>

0000000000400d80 <__fprintf_chk@plt>:
  400d80:	ff 25 72 43 20 00    	jmp    *0x204372(%rip)        # 6050f8 <__fprintf_chk@GLIBC_2.3.4>
  400d86:	68 1c 00 00 00       	push   $0x1c
  400d8b:	e9 20 fe ff ff       	jmp    400bb0 <.plt>

0000000000400d90 <__sprintf_chk@plt>:
  400d90:	ff 25 6a 43 20 00    	jmp    *0x20436a(%rip)        # 605100 <__sprintf_chk@GLIBC_2.3.4>
  400d96:	68 1d 00 00 00       	push   $0x1d
  400d9b:	e9 10 fe ff ff       	jmp    400bb0 <.plt>

0000000000400da0 <socket@plt>:
  400da0:	ff 25 62 43 20 00    	jmp    *0x204362(%rip)        # 605108 <socket@GLIBC_2.2.5>
  400da6:	68 1e 00 00 00       	push   $0x1e
  400dab:	e9 00 fe ff ff       	jmp    400bb0 <.plt>

Disassembly of section .plt.got:

0000000000400db0 <__gmon_start__@plt>:
  400db0:	ff 25 42 42 20 00    	jmp    *0x204242(%rip)        # 604ff8 <__gmon_start__>
  400db6:	66 90                	xchg   %ax,%ax

Disassembly of section .text:

0000000000400dc0 <_start>:
  400dc0:	31 ed                	xor    %ebp,%ebp
  400dc2:	49 89 d1             	mov    %rdx,%r9
  400dc5:	5e                   	pop    %rsi
  400dc6:	48 89 e2             	mov    %rsp,%rdx
  400dc9:	48 83 e4 f0          	and    $0xfffffffffffffff0,%rsp
  400dcd:	50                   	push   %rax
  400dce:	54                   	push   %rsp
  400dcf:	49 c7 c0 a0 2d 40 00 	mov    $0x402da0,%r8
  400dd6:	48 c7 c1 30 2d 40 00 	mov    $0x402d30,%rcx
  400ddd:	48 c7 c7 3c 10 40 00 	mov    $0x40103c,%rdi
  400de4:	e8 97 fe ff ff       	call   400c80 <__libc_start_main@plt>
  400de9:	f4                   	hlt
  400dea:	66 0f 1f 44 00 00    	nopw   0x0(%rax,%rax,1)

0000000000400df0 <deregister_tm_clones>:
  400df0:	b8 97 54 60 00       	mov    $0x605497,%eax
  400df5:	55                   	push   %rbp
  400df6:	48 2d 90 54 60 00    	sub    $0x605490,%rax
  400dfc:	48 83 f8 0e          	cmp    $0xe,%rax
  400e00:	48 89 e5             	mov    %rsp,%rbp
  400e03:	76 1b                	jbe    400e20 <deregister_tm_clones+0x30>
  400e05:	b8 00 00 00 00       	mov    $0x0,%eax
  400e0a:	48 85 c0             	test   %rax,%rax
  400e0d:	74 11                	je     400e20 <deregister_tm_clones+0x30>
  400e0f:	5d                   	pop    %rbp
  400e10:	bf 90 54 60 00       	mov    $0x605490,%edi
  400e15:	ff e0                	jmp    *%rax
  400e17:	66 0f 1f 84 00 00 00 	nopw   0x0(%rax,%rax,1)
  400e1e:	00 00 
  400e20:	5d                   	pop    %rbp
  400e21:	c3                   	ret
  400e22:	0f 1f 40 00          	nopl   0x0(%rax)
  400e26:	66 2e 0f 1f 84 00 00 	cs nopw 0x0(%rax,%rax,1)
  400e2d:	00 00 00 

0000000000400e30 <register_tm_clones>:
  400e30:	be 90 54 60 00       	mov    $0x605490,%esi
  400e35:	55                   	push   %rbp
  400e36:	48 81 ee 90 54 60 00 	sub    $0x605490,%rsi
  400e3d:	48 c1 fe 03          	sar    $0x3,%rsi
  400e41:	48 89 e5             	mov    %rsp,%rbp
  400e44:	48 89 f0             	mov    %rsi,%rax
  400e47:	48 c1 e8 3f          	shr    $0x3f,%rax
  400e4b:	48 01 c6             	add    %rax,%rsi
  400e4e:	48 d1 fe             	sar    $1,%rsi
  400e51:	74 15                	je     400e68 <register_tm_clones+0x38>
  400e53:	b8 00 00 00 00       	mov    $0x0,%eax
  400e58:	48 85 c0             	test   %rax,%rax
  400e5b:	74 0b                	je     400e68 <register_tm_clones+0x38>
  400e5d:	5d                   	pop    %rbp
  400e5e:	bf 90 54 60 00       	mov    $0x605490,%edi
  400e63:	ff e0                	jmp    *%rax
  400e65:	0f 1f 00             	nopl   (%rax)
  400e68:	5d                   	pop    %rbp
  400e69:	c3                   	ret
  400e6a:	66 0f 1f 44 00 00    	nopw   0x0(%rax,%rax,1)

0000000000400e70 <__do_global_dtors_aux>:
  400e70:	80 3d 51 46 20 00 00 	cmpb   $0x0,0x204651(%rip)        # 6054c8 <completed.7594>
  400e77:	75 11                	jne    400e8a <__do_global_dtors_aux+0x1a>
  400e79:	55                   	push   %rbp
  400e7a:	48 89 e5             	mov    %rsp,%rbp
  400e7d:	e8 6e ff ff ff       	call   400df0 <deregister_tm_clones>
  400e82:	5d                   	pop    %rbp
  400e83:	c6 05 3e 46 20 00 01 	movb   $0x1,0x20463e(%rip)        # 6054c8 <completed.7594>
  400e8a:	f3 c3                	repz ret
  400e8c:	0f 1f 40 00          	nopl   0x0(%rax)

0000000000400e90 <frame_dummy>:
  400e90:	bf 20 4e 60 00       	mov    $0x604e20,%edi
  400e95:	48 83 3f 00          	cmpq   $0x0,(%rdi)
  400e99:	75 05                	jne    400ea0 <frame_dummy+0x10>
  400e9b:	eb 93                	jmp    400e30 <register_tm_clones>
  400e9d:	0f 1f 00             	nopl   (%rax)
  400ea0:	b8 00 00 00 00       	mov    $0x0,%eax
  400ea5:	48 85 c0             	test   %rax,%rax
  400ea8:	74 f1                	je     400e9b <frame_dummy+0xb>
  400eaa:	55                   	push   %rbp
  400eab:	48 89 e5             	mov    %rsp,%rbp
  400eae:	ff d0                	call   *%rax
  400eb0:	5d                   	pop    %rbp
  400eb1:	e9 7a ff ff ff       	jmp    400e30 <register_tm_clones>

0000000000400eb6 <usage>:
  400eb6:	48 83 ec 08          	sub    $0x8,%rsp
  400eba:	48 89 fa             	mov    %rdi,%rdx
  400ebd:	83 3d 44 46 20 00 00 	cmpl   $0x0,0x204644(%rip)        # 605508 <is_checker>
  400ec4:	74 3e                	je     400f04 <usage+0x4e>
  400ec6:	be b8 2d 40 00       	mov    $0x402db8,%esi
  400ecb:	bf 01 00 00 00       	mov    $0x1,%edi
  400ed0:	b8 00 00 00 00       	mov    $0x0,%eax
  400ed5:	e8 46 fe ff ff       	call   400d20 <__printf_chk@plt>
  400eda:	bf f0 2d 40 00       	mov    $0x402df0,%edi
  400edf:	e8 1c fd ff ff       	call   400c00 <puts@plt>
  400ee4:	bf f0 2e 40 00       	mov    $0x402ef0,%edi
  400ee9:	e8 12 fd ff ff       	call   400c00 <puts@plt>
  400eee:	bf 18 2e 40 00       	mov    $0x402e18,%edi
  400ef3:	e8 08 fd ff ff       	call   400c00 <puts@plt>
  400ef8:	bf 0a 2f 40 00       	mov    $0x402f0a,%edi
  400efd:	e8 fe fc ff ff       	call   400c00 <puts@plt>
  400f02:	eb 32                	jmp    400f36 <usage+0x80>
  400f04:	be 26 2f 40 00       	mov    $0x402f26,%esi
  400f09:	bf 01 00 00 00       	mov    $0x1,%edi
  400f0e:	b8 00 00 00 00       	mov    $0x0,%eax
  400f13:	e8 08 fe ff ff       	call   400d20 <__printf_chk@plt>
  400f18:	bf 40 2e 40 00       	mov    $0x402e40,%edi
  400f1d:	e8 de fc ff ff       	call   400c00 <puts@plt>
  400f22:	bf 68 2e 40 00       	mov    $0x402e68,%edi
  400f27:	e8 d4 fc ff ff       	call   400c00 <puts@plt>
  400f2c:	bf 44 2f 40 00       	mov    $0x402f44,%edi
  400f31:	e8 ca fc ff ff       	call   400c00 <puts@plt>
  400f36:	bf 00 00 00 00       	mov    $0x0,%edi
  400f3b:	e8 20 fe ff ff       	call   400d60 <exit@plt>

0000000000400f40 <initialize_target>:
  400f40:	55                   	push   %rbp
  400f41:	53                   	push   %rbx
  400f42:	48 81 ec 18 20 00 00 	sub    $0x2018,%rsp
  400f49:	89 f5                	mov    %esi,%ebp
  400f4b:	64 48 8b 04 25 28 00 	mov    %fs:0x28,%rax
  400f52:	00 00 
  400f54:	48 89 84 24 08 20 00 	mov    %rax,0x2008(%rsp)
  400f5b:	00 
  400f5c:	31 c0                	xor    %eax,%eax
  400f5e:	89 3d 94 45 20 00    	mov    %edi,0x204594(%rip)        # 6054f8 <check_level>
  400f64:	8b 3d de 41 20 00    	mov    0x2041de(%rip),%edi        # 605148 <target_id>
  400f6a:	e8 94 1d 00 00       	call   402d03 <gencookie>
  400f6f:	89 05 8f 45 20 00    	mov    %eax,0x20458f(%rip)        # 605504 <cookie>
  400f75:	89 c7                	mov    %eax,%edi
  400f77:	e8 87 1d 00 00       	call   402d03 <gencookie>
  400f7c:	89 05 7e 45 20 00    	mov    %eax,0x20457e(%rip)        # 605500 <authkey>
  400f82:	8b 05 c0 41 20 00    	mov    0x2041c0(%rip),%eax        # 605148 <target_id>
  400f88:	8d 78 01             	lea    0x1(%rax),%edi
  400f8b:	e8 40 fc ff ff       	call   400bd0 <srandom@plt>
  400f90:	e8 4b fd ff ff       	call   400ce0 <random@plt>
  400f95:	89 c7                	mov    %eax,%edi
  400f97:	e8 7a 02 00 00       	call   401216 <scramble>
  400f9c:	89 c3                	mov    %eax,%ebx
  400f9e:	85 ed                	test   %ebp,%ebp
  400fa0:	74 18                	je     400fba <initialize_target+0x7a>
  400fa2:	bf 00 00 00 00       	mov    $0x0,%edi
  400fa7:	e8 24 fd ff ff       	call   400cd0 <time@plt>
  400fac:	89 c7                	mov    %eax,%edi
  400fae:	e8 1d fc ff ff       	call   400bd0 <srandom@plt>
  400fb3:	e8 28 fd ff ff       	call   400ce0 <random@plt>
  400fb8:	eb 05                	jmp    400fbf <initialize_target+0x7f>
  400fba:	b8 00 00 00 00       	mov    $0x0,%eax
  400fbf:	01 c3                	add    %eax,%ebx
  400fc1:	0f b7 db             	movzwl %bx,%ebx
  400fc4:	8d 04 dd 00 01 00 00 	lea    0x100(,%rbx,8),%eax
  400fcb:	89 c0                	mov    %eax,%eax
  400fcd:	48 89 05 ac 44 20 00 	mov    %rax,0x2044ac(%rip)        # 605480 <buf_offset>
  400fd4:	c6 05 4d 51 20 00 72 	movb   $0x72,0x20514d(%rip)        # 606128 <target_prefix>
  400fdb:	83 3d a6 44 20 00 00 	cmpl   $0x0,0x2044a6(%rip)        # 605488 <notify>
  400fe2:	74 36                	je     40101a <initialize_target+0xda>
  400fe4:	83 3d 1d 45 20 00 00 	cmpl   $0x0,0x20451d(%rip)        # 605508 <is_checker>
  400feb:	75 2d                	jne    40101a <initialize_target+0xda>
  400fed:	48 89 e7             	mov    %rsp,%rdi
  400ff0:	e8 07 1b 00 00       	call   402afc <init_driver>
  400ff5:	85 c0                	test   %eax,%eax
  400ff7:	79 21                	jns    40101a <initialize_target+0xda>
  400ff9:	48 89 e2             	mov    %rsp,%rdx
  400ffc:	be 98 2e 40 00       	mov    $0x402e98,%esi
  401001:	bf 01 00 00 00       	mov    $0x1,%edi
  401006:	b8 00 00 00 00       	mov    $0x0,%eax
  40100b:	e8 10 fd ff ff       	call   400d20 <__printf_chk@plt>
  401010:	bf 08 00 00 00       	mov    $0x8,%edi
  401015:	e8 46 fd ff ff       	call   400d60 <exit@plt>
  40101a:	48 8b 84 24 08 20 00 	mov    0x2008(%rsp),%rax
  401021:	00 
  401022:	64 48 33 04 25 28 00 	xor    %fs:0x28,%rax
  401029:	00 00 
  40102b:	74 05                	je     401032 <initialize_target+0xf2>
  40102d:	e8 ee fb ff ff       	call   400c20 <__stack_chk_fail@plt>
  401032:	48 81 c4 18 20 00 00 	add    $0x2018,%rsp
  401039:	5b                   	pop    %rbx
  40103a:	5d                   	pop    %rbp
  40103b:	c3                   	ret

000000000040103c <main>:
  40103c:	41 56                	push   %r14
  40103e:	41 55                	push   %r13
  401040:	41 54                	push   %r12
  401042:	55                   	push   %rbp
  401043:	53                   	push   %rbx
  401044:	41 89 fc             	mov    %edi,%r12d
  401047:	48 89 f3             	mov    %rsi,%rbx
  40104a:	be c4 1e 40 00       	mov    $0x401ec4,%esi
  40104f:	bf 0b 00 00 00       	mov    $0xb,%edi
  401054:	e8 47 fc ff ff       	call   400ca0 <signal@plt>
  401059:	be 76 1e 40 00       	mov    $0x401e76,%esi
  40105e:	bf 07 00 00 00       	mov    $0x7,%edi
  401063:	e8 38 fc ff ff       	call   400ca0 <signal@plt>
  401068:	be 12 1f 40 00       	mov    $0x401f12,%esi
  40106d:	bf 04 00 00 00       	mov    $0x4,%edi
  401072:	e8 29 fc ff ff       	call   400ca0 <signal@plt>
  401077:	83 3d 8a 44 20 00 00 	cmpl   $0x0,0x20448a(%rip)        # 605508 <is_checker>
  40107e:	74 20                	je     4010a0 <main+0x64>
  401080:	be 60 1f 40 00       	mov    $0x401f60,%esi
  401085:	bf 0e 00 00 00       	mov    $0xe,%edi
  40108a:	e8 11 fc ff ff       	call   400ca0 <signal@plt>
  40108f:	bf 05 00 00 00       	mov    $0x5,%edi
  401094:	e8 b7 fb ff ff       	call   400c50 <alarm@plt>
  401099:	bd 62 2f 40 00       	mov    $0x402f62,%ebp
  40109e:	eb 05                	jmp    4010a5 <main+0x69>
  4010a0:	bd 5d 2f 40 00       	mov    $0x402f5d,%ebp
  4010a5:	48 8b 05 f4 43 20 00 	mov    0x2043f4(%rip),%rax        # 6054a0 <stdin@GLIBC_2.2.5>
  4010ac:	48 89 05 3d 44 20 00 	mov    %rax,0x20443d(%rip)        # 6054f0 <infile>
  4010b3:	41 bd 00 00 00 00    	mov    $0x0,%r13d
  4010b9:	41 be 00 00 00 00    	mov    $0x0,%r14d
  4010bf:	e9 c6 00 00 00       	jmp    40118a <main+0x14e>
  4010c4:	83 e8 61             	sub    $0x61,%eax
  4010c7:	3c 10                	cmp    $0x10,%al
  4010c9:	0f 87 9c 00 00 00    	ja     40116b <main+0x12f>
  4010cf:	0f b6 c0             	movzbl %al,%eax
  4010d2:	ff 24 c5 a8 2f 40 00 	jmp    *0x402fa8(,%rax,8)
  4010d9:	48 8b 3b             	mov    (%rbx),%rdi
  4010dc:	e8 d5 fd ff ff       	call   400eb6 <usage>
  4010e1:	be 45 32 40 00       	mov    $0x403245,%esi
  4010e6:	48 8b 3d bb 43 20 00 	mov    0x2043bb(%rip),%rdi        # 6054a8 <optarg@GLIBC_2.2.5>
  4010ed:	e8 3e fc ff ff       	call   400d30 <fopen@plt>
  4010f2:	48 89 05 f7 43 20 00 	mov    %rax,0x2043f7(%rip)        # 6054f0 <infile>
  4010f9:	48 85 c0             	test   %rax,%rax
  4010fc:	0f 85 88 00 00 00    	jne    40118a <main+0x14e>
  401102:	48 8b 0d 9f 43 20 00 	mov    0x20439f(%rip),%rcx        # 6054a8 <optarg@GLIBC_2.2.5>
  401109:	ba 6a 2f 40 00       	mov    $0x402f6a,%edx
  40110e:	be 01 00 00 00       	mov    $0x1,%esi
  401113:	48 8b 3d a6 43 20 00 	mov    0x2043a6(%rip),%rdi        # 6054c0 <stderr@GLIBC_2.2.5>
  40111a:	e8 61 fc ff ff       	call   400d80 <__fprintf_chk@plt>
  40111f:	b8 01 00 00 00       	mov    $0x1,%eax
  401124:	e9 e4 00 00 00       	jmp    40120d <main+0x1d1>
  401129:	ba 10 00 00 00       	mov    $0x10,%edx
  40112e:	be 00 00 00 00       	mov    $0x0,%esi
  401133:	48 8b 3d 6e 43 20 00 	mov    0x20436e(%rip),%rdi        # 6054a8 <optarg@GLIBC_2.2.5>
  40113a:	e8 11 fc ff ff       	call   400d50 <strtoul@plt>
  40113f:	41 89 c6             	mov    %eax,%r14d
  401142:	eb 46                	jmp    40118a <main+0x14e>
  401144:	ba 0a 00 00 00       	mov    $0xa,%edx
  401149:	be 00 00 00 00       	mov    $0x0,%esi
  40114e:	48 8b 3d 53 43 20 00 	mov    0x204353(%rip),%rdi        # 6054a8 <optarg@GLIBC_2.2.5>
  401155:	e8 56 fb ff ff       	call   400cb0 <strtol@plt>
  40115a:	41 89 c5             	mov    %eax,%r13d
  40115d:	eb 2b                	jmp    40118a <main+0x14e>
  40115f:	c7 05 1f 43 20 00 00 	movl   $0x0,0x20431f(%rip)        # 605488 <notify>
  401166:	00 00 00 
  401169:	eb 1f                	jmp    40118a <main+0x14e>
  40116b:	0f be d2             	movsbl %dl,%edx
  40116e:	be 87 2f 40 00       	mov    $0x402f87,%esi
  401173:	bf 01 00 00 00       	mov    $0x1,%edi
  401178:	b8 00 00 00 00       	mov    $0x0,%eax
  40117d:	e8 9e fb ff ff       	call   400d20 <__printf_chk@plt>
  401182:	48 8b 3b             	mov    (%rbx),%rdi
  401185:	e8 2c fd ff ff       	call   400eb6 <usage>
  40118a:	48 89 ea             	mov    %rbp,%rdx
  40118d:	48 89 de             	mov    %rbx,%rsi
  401190:	44 89 e7             	mov    %r12d,%edi
  401193:	e8 a8 fb ff ff       	call   400d40 <getopt@plt>
  401198:	89 c2                	mov    %eax,%edx
  40119a:	3c ff                	cmp    $0xff,%al
  40119c:	0f 85 22 ff ff ff    	jne    4010c4 <main+0x88>
  4011a2:	be 01 00 00 00       	mov    $0x1,%esi
  4011a7:	44 89 ef             	mov    %r13d,%edi
  4011aa:	e8 91 fd ff ff       	call   400f40 <initialize_target>
  4011af:	83 3d 52 43 20 00 00 	cmpl   $0x0,0x204352(%rip)        # 605508 <is_checker>
  4011b6:	74 2a                	je     4011e2 <main+0x1a6>
  4011b8:	44 3b 35 41 43 20 00 	cmp    0x204341(%rip),%r14d        # 605500 <authkey>
  4011bf:	74 21                	je     4011e2 <main+0x1a6>
  4011c1:	44 89 f2             	mov    %r14d,%edx
  4011c4:	be c0 2e 40 00       	mov    $0x402ec0,%esi
  4011c9:	bf 01 00 00 00       	mov    $0x1,%edi
  4011ce:	b8 00 00 00 00       	mov    $0x0,%eax
  4011d3:	e8 48 fb ff ff       	call   400d20 <__printf_chk@plt>
  4011d8:	b8 00 00 00 00       	mov    $0x0,%eax
  4011dd:	e8 30 09 00 00       	call   401b12 <check_fail>
  4011e2:	8b 15 1c 43 20 00    	mov    0x20431c(%rip),%edx        # 605504 <cookie>
  4011e8:	be 9a 2f 40 00       	mov    $0x402f9a,%esi
  4011ed:	bf 01 00 00 00       	mov    $0x1,%edi
  4011f2:	b8 00 00 00 00       	mov    $0x0,%eax
  4011f7:	e8 24 fb ff ff       	call   400d20 <__printf_chk@plt>
  4011fc:	48 8b 3d 7d 42 20 00 	mov    0x20427d(%rip),%rdi        # 605480 <buf_offset>
  401203:	e8 ab 0d 00 00       	call   401fb3 <launch>
  401208:	b8 00 00 00 00       	mov    $0x0,%eax
  40120d:	5b                   	pop    %rbx
  40120e:	5d                   	pop    %rbp
  40120f:	41 5c                	pop    %r12
  401211:	41 5d                	pop    %r13
  401213:	41 5e                	pop    %r14
  401215:	c3                   	ret

0000000000401216 <scramble>:
  401216:	48 83 ec 38          	sub    $0x38,%rsp
  40121a:	64 48 8b 04 25 28 00 	mov    %fs:0x28,%rax
  401221:	00 00 
  401223:	48 89 44 24 28       	mov    %rax,0x28(%rsp)
  401228:	31 c0                	xor    %eax,%eax
  40122a:	eb 10                	jmp    40123c <scramble+0x26>
  40122c:	69 d0 24 59 00 00    	imul   $0x5924,%eax,%edx
  401232:	01 fa                	add    %edi,%edx
  401234:	89 c1                	mov    %eax,%ecx
  401236:	89 14 8c             	mov    %edx,(%rsp,%rcx,4)
  401239:	83 c0 01             	add    $0x1,%eax
  40123c:	83 f8 09             	cmp    $0x9,%eax
  40123f:	76 eb                	jbe    40122c <scramble+0x16>
  401241:	8b 44 24 10          	mov    0x10(%rsp),%eax
  401245:	69 c0 d5 d2 00 00    	imul   $0xd2d5,%eax,%eax
  40124b:	89 44 24 10          	mov    %eax,0x10(%rsp)
  40124f:	8b 04 24             	mov    (%rsp),%eax
  401252:	69 c0 ed a7 00 00    	imul   $0xa7ed,%eax,%eax
  401258:	89 04 24             	mov    %eax,(%rsp)
  40125b:	8b 44 24 18          	mov    0x18(%rsp),%eax
  40125f:	69 c0 56 d8 00 00    	imul   $0xd856,%eax,%eax
  401265:	89 44 24 18          	mov    %eax,0x18(%rsp)
  401269:	8b 44 24 08          	mov    0x8(%rsp),%eax
  40126d:	69 c0 d8 b6 00 00    	imul   $0xb6d8,%eax,%eax
  401273:	89 44 24 08          	mov    %eax,0x8(%rsp)
  401277:	8b 44 24 10          	mov    0x10(%rsp),%eax
  40127b:	69 c0 71 20 00 00    	imul   $0x2071,%eax,%eax
  401281:	89 44 24 10          	mov    %eax,0x10(%rsp)
  401285:	8b 44 24 0c          	mov    0xc(%rsp),%eax
  401289:	69 c0 55 36 00 00    	imul   $0x3655,%eax,%eax
  40128f:	89 44 24 0c          	mov    %eax,0xc(%rsp)
  401293:	8b 44 24 0c          	mov    0xc(%rsp),%eax
  401297:	69 c0 24 b3 00 00    	imul   $0xb324,%eax,%eax
  40129d:	89 44 24 0c          	mov    %eax,0xc(%rsp)
  4012a1:	8b 44 24 04          	mov    0x4(%rsp),%eax
  4012a5:	69 c0 0e 52 00 00    	imul   $0x520e,%eax,%eax
  4012ab:	89 44 24 04          	mov    %eax,0x4(%rsp)
  4012af:	8b 44 24 24          	mov    0x24(%rsp),%eax
  4012b3:	69 c0 1b 05 00 00    	imul   $0x51b,%eax,%eax
  4012b9:	89 44 24 24          	mov    %eax,0x24(%rsp)
  4012bd:	8b 44 24 14          	mov    0x14(%rsp),%eax
  4012c1:	69 c0 48 0f 00 00    	imul   $0xf48,%eax,%eax
  4012c7:	89 44 24 14          	mov    %eax,0x14(%rsp)
  4012cb:	8b 44 24 0c          	mov    0xc(%rsp),%eax
  4012cf:	69 c0 f3 67 00 00    	imul   $0x67f3,%eax,%eax
  4012d5:	89 44 24 0c          	mov    %eax,0xc(%rsp)
  4012d9:	8b 44 24 04          	mov    0x4(%rsp),%eax
  4012dd:	69 c0 ed 49 00 00    	imul   $0x49ed,%eax,%eax
  4012e3:	89 44 24 04          	mov    %eax,0x4(%rsp)
  4012e7:	8b 44 24 04          	mov    0x4(%rsp),%eax
  4012eb:	69 c0 39 d7 00 00    	imul   $0xd739,%eax,%eax
  4012f1:	89 44 24 04          	mov    %eax,0x4(%rsp)
  4012f5:	8b 04 24             	mov    (%rsp),%eax
  4012f8:	69 c0 50 60 00 00    	imul   $0x6050,%eax,%eax
  4012fe:	89 04 24             	mov    %eax,(%rsp)
  401301:	8b 44 24 18          	mov    0x18(%rsp),%eax
  401305:	69 c0 f4 e8 00 00    	imul   $0xe8f4,%eax,%eax
  40130b:	89 44 24 18          	mov    %eax,0x18(%rsp)
  40130f:	8b 44 24 14          	mov    0x14(%rsp),%eax
  401313:	69 c0 dc 77 00 00    	imul   $0x77dc,%eax,%eax
  401319:	89 44 24 14          	mov    %eax,0x14(%rsp)
  40131d:	8b 44 24 0c          	mov    0xc(%rsp),%eax
  401321:	69 c0 20 38 00 00    	imul   $0x3820,%eax,%eax
  401327:	89 44 24 0c          	mov    %eax,0xc(%rsp)
  40132b:	8b 44 24 10          	mov    0x10(%rsp),%eax
  40132f:	69 c0 be 56 00 00    	imul   $0x56be,%eax,%eax
  401335:	89 44 24 10          	mov    %eax,0x10(%rsp)
  401339:	8b 44 24 18          	mov    0x18(%rsp),%eax
  40133d:	69 c0 8d 11 00 00    	imul   $0x118d,%eax,%eax
  401343:	89 44 24 18          	mov    %eax,0x18(%rsp)
  401347:	8b 04 24             	mov    (%rsp),%eax
  40134a:	69 c0 91 85 00 00    	imul   $0x8591,%eax,%eax
  401350:	89 04 24             	mov    %eax,(%rsp)
  401353:	8b 44 24 10          	mov    0x10(%rsp),%eax
  401357:	69 c0 66 83 00 00    	imul   $0x8366,%eax,%eax
  40135d:	89 44 24 10          	mov    %eax,0x10(%rsp)
  401361:	8b 44 24 08          	mov    0x8(%rsp),%eax
  401365:	69 c0 8b 28 00 00    	imul   $0x288b,%eax,%eax
  40136b:	89 44 24 08          	mov    %eax,0x8(%rsp)
  40136f:	8b 44 24 1c          	mov    0x1c(%rsp),%eax
  401373:	69 c0 d7 f6 00 00    	imul   $0xf6d7,%eax,%eax
  401379:	89 44 24 1c          	mov    %eax,0x1c(%rsp)
  40137d:	8b 44 24 20          	mov    0x20(%rsp),%eax
  401381:	69 c0 0e e9 00 00    	imul   $0xe90e,%eax,%eax
  401387:	89 44 24 20          	mov    %eax,0x20(%rsp)
  40138b:	8b 44 24 08          	mov    0x8(%rsp),%eax
  40138f:	69 c0 fb de 00 00    	imul   $0xdefb,%eax,%eax
  401395:	89 44 24 08          	mov    %eax,0x8(%rsp)
  401399:	8b 04 24             	mov    (%rsp),%eax
  40139c:	69 c0 3f de 00 00    	imul   $0xde3f,%eax,%eax
  4013a2:	89 04 24             	mov    %eax,(%rsp)
  4013a5:	8b 44 24 14          	mov    0x14(%rsp),%eax
  4013a9:	69 c0 9d 5f 00 00    	imul   $0x5f9d,%eax,%eax
  4013af:	89 44 24 14          	mov    %eax,0x14(%rsp)
  4013b3:	8b 44 24 08          	mov    0x8(%rsp),%eax
  4013b7:	69 c0 8d 68 00 00    	imul   $0x688d,%eax,%eax
  4013bd:	89 44 24 08          	mov    %eax,0x8(%rsp)
  4013c1:	8b 44 24 0c          	mov    0xc(%rsp),%eax
  4013c5:	69 c0 e8 cd 00 00    	imul   $0xcde8,%eax,%eax
  4013cb:	89 44 24 0c          	mov    %eax,0xc(%rsp)
  4013cf:	8b 44 24 1c          	mov    0x1c(%rsp),%eax
  4013d3:	69 c0 8e 55 00 00    	imul   $0x558e,%eax,%eax
  4013d9:	89 44 24 1c          	mov    %eax,0x1c(%rsp)
  4013dd:	8b 44 24 18          	mov    0x18(%rsp),%eax
  4013e1:	69 c0 b1 05 00 00    	imul   $0x5b1,%eax,%eax
  4013e7:	89 44 24 18          	mov    %eax,0x18(%rsp)
  4013eb:	8b 44 24 08          	mov    0x8(%rsp),%eax
  4013ef:	69 c0 a6 72 00 00    	imul   $0x72a6,%eax,%eax
  4013f5:	89 44 24 08          	mov    %eax,0x8(%rsp)
  4013f9:	8b 04 24             	mov    (%rsp),%eax
  4013fc:	69 c0 33 ed 00 00    	imul   $0xed33,%eax,%eax
  401402:	89 04 24             	mov    %eax,(%rsp)
  401405:	8b 44 24 08          	mov    0x8(%rsp),%eax
  401409:	69 c0 48 4e 00 00    	imul   $0x4e48,%eax,%eax
  40140f:	89 44 24 08          	mov    %eax,0x8(%rsp)
  401413:	8b 44 24 0c          	mov    0xc(%rsp),%eax
  401417:	69 c0 fb d6 00 00    	imul   $0xd6fb,%eax,%eax
  40141d:	89 44 24 0c          	mov    %eax,0xc(%rsp)
  401421:	8b 44 24 04          	mov    0x4(%rsp),%eax
  401425:	69 c0 be 30 00 00    	imul   $0x30be,%eax,%eax
  40142b:	89 44 24 04          	mov    %eax,0x4(%rsp)
  40142f:	8b 04 24             	mov    (%rsp),%eax
  401432:	69 c0 bf 8f 00 00    	imul   $0x8fbf,%eax,%eax
  401438:	89 04 24             	mov    %eax,(%rsp)
  40143b:	8b 44 24 10          	mov    0x10(%rsp),%eax
  40143f:	69 c0 ec 90 00 00    	imul   $0x90ec,%eax,%eax
  401445:	89 44 24 10          	mov    %eax,0x10(%rsp)
  401449:	8b 44 24 08          	mov    0x8(%rsp),%eax
  40144d:	69 c0 e3 d3 00 00    	imul   $0xd3e3,%eax,%eax
  401453:	89 44 24 08          	mov    %eax,0x8(%rsp)
  401457:	8b 44 24 10          	mov    0x10(%rsp),%eax
  40145b:	69 c0 89 82 00 00    	imul   $0x8289,%eax,%eax
  401461:	89 44 24 10          	mov    %eax,0x10(%rsp)
  401465:	8b 04 24             	mov    (%rsp),%eax
  401468:	69 c0 50 72 00 00    	imul   $0x7250,%eax,%eax
  40146e:	89 04 24             	mov    %eax,(%rsp)
  401471:	8b 44 24 10          	mov    0x10(%rsp),%eax
  401475:	69 c0 cc f9 00 00    	imul   $0xf9cc,%eax,%eax
  40147b:	89 44 24 10          	mov    %eax,0x10(%rsp)
  40147f:	8b 44 24 24          	mov    0x24(%rsp),%eax
  401483:	69 c0 f5 88 00 00    	imul   $0x88f5,%eax,%eax
  401489:	89 44 24 24          	mov    %eax,0x24(%rsp)
  40148d:	8b 44 24 18          	mov    0x18(%rsp),%eax
  401491:	69 c0 c4 08 00 00    	imul   $0x8c4,%eax,%eax
  401497:	89 44 24 18          	mov    %eax,0x18(%rsp)
  40149b:	8b 44 24 0c          	mov    0xc(%rsp),%eax
  40149f:	69 c0 37 2b 00 00    	imul   $0x2b37,%eax,%eax
  4014a5:	89 44 24 0c          	mov    %eax,0xc(%rsp)
  4014a9:	8b 44 24 08          	mov    0x8(%rsp),%eax
  4014ad:	69 c0 bb 0d 00 00    	imul   $0xdbb,%eax,%eax
  4014b3:	89 44 24 08          	mov    %eax,0x8(%rsp)
  4014b7:	8b 44 24 1c          	mov    0x1c(%rsp),%eax
  4014bb:	69 c0 bd 2b 00 00    	imul   $0x2bbd,%eax,%eax
  4014c1:	89 44 24 1c          	mov    %eax,0x1c(%rsp)
  4014c5:	8b 44 24 0c          	mov    0xc(%rsp),%eax
  4014c9:	69 c0 ba 6e 00 00    	imul   $0x6eba,%eax,%eax
  4014cf:	89 44 24 0c          	mov    %eax,0xc(%rsp)
  4014d3:	8b 44 24 0c          	mov    0xc(%rsp),%eax
  4014d7:	69 c0 c6 49 00 00    	imul   $0x49c6,%eax,%eax
  4014dd:	89 44 24 0c          	mov    %eax,0xc(%rsp)
  4014e1:	8b 44 24 1c          	mov    0x1c(%rsp),%eax
  4014e5:	69 c0 b1 17 00 00    	imul   $0x17b1,%eax,%eax
  4014eb:	89 44 24 1c          	mov    %eax,0x1c(%rsp)
  4014ef:	8b 44 24 20          	mov    0x20(%rsp),%eax
  4014f3:	69 c0 dc 90 00 00    	imul   $0x90dc,%eax,%eax
  4014f9:	89 44 24 20          	mov    %eax,0x20(%rsp)
  4014fd:	8b 44 24 18          	mov    0x18(%rsp),%eax
  401501:	69 c0 22 7b 00 00    	imul   $0x7b22,%eax,%eax
  401507:	89 44 24 18          	mov    %eax,0x18(%rsp)
  40150b:	8b 44 24 18          	mov    0x18(%rsp),%eax
  40150f:	69 c0 ba a1 00 00    	imul   $0xa1ba,%eax,%eax
  401515:	89 44 24 18          	mov    %eax,0x18(%rsp)
  401519:	8b 44 24 1c          	mov    0x1c(%rsp),%eax
  40151d:	69 c0 32 a7 00 00    	imul   $0xa732,%eax,%eax
  401523:	89 44 24 1c          	mov    %eax,0x1c(%rsp)
  401527:	8b 44 24 1c          	mov    0x1c(%rsp),%eax
  40152b:	69 c0 08 86 00 00    	imul   $0x8608,%eax,%eax
  401531:	89 44 24 1c          	mov    %eax,0x1c(%rsp)
  401535:	8b 44 24 1c          	mov    0x1c(%rsp),%eax
  401539:	69 c0 7c 28 00 00    	imul   $0x287c,%eax,%eax
  40153f:	89 44 24 1c          	mov    %eax,0x1c(%rsp)
  401543:	8b 04 24             	mov    (%rsp),%eax
  401546:	69 c0 84 8a 00 00    	imul   $0x8a84,%eax,%eax
  40154c:	89 04 24             	mov    %eax,(%rsp)
  40154f:	8b 44 24 1c          	mov    0x1c(%rsp),%eax
  401553:	69 c0 47 ca 00 00    	imul   $0xca47,%eax,%eax
  401559:	89 44 24 1c          	mov    %eax,0x1c(%rsp)
  40155d:	8b 44 24 04          	mov    0x4(%rsp),%eax
  401561:	69 c0 a2 84 00 00    	imul   $0x84a2,%eax,%eax
  401567:	89 44 24 04          	mov    %eax,0x4(%rsp)
  40156b:	8b 44 24 14          	mov    0x14(%rsp),%eax
  40156f:	69 c0 57 6a 00 00    	imul   $0x6a57,%eax,%eax
  401575:	89 44 24 14          	mov    %eax,0x14(%rsp)
  401579:	8b 44 24 18          	mov    0x18(%rsp),%eax
  40157d:	69 c0 5e 31 00 00    	imul   $0x315e,%eax,%eax
  401583:	89 44 24 18          	mov    %eax,0x18(%rsp)
  401587:	8b 44 24 20          	mov    0x20(%rsp),%eax
  40158b:	69 c0 c1 e0 00 00    	imul   $0xe0c1,%eax,%eax
  401591:	89 44 24 20          	mov    %eax,0x20(%rsp)
  401595:	8b 44 24 18          	mov    0x18(%rsp),%eax
  401599:	69 c0 74 f8 00 00    	imul   $0xf874,%eax,%eax
  40159f:	89 44 24 18          	mov    %eax,0x18(%rsp)
  4015a3:	8b 44 24 10          	mov    0x10(%rsp),%eax
  4015a7:	69 c0 0d 76 00 00    	imul   $0x760d,%eax,%eax
  4015ad:	89 44 24 10          	mov    %eax,0x10(%rsp)
  4015b1:	8b 44 24 18          	mov    0x18(%rsp),%eax
  4015b5:	69 c0 7f 0c 00 00    	imul   $0xc7f,%eax,%eax
  4015bb:	89 44 24 18          	mov    %eax,0x18(%rsp)
  4015bf:	8b 44 24 1c          	mov    0x1c(%rsp),%eax
  4015c3:	69 c0 fb 62 00 00    	imul   $0x62fb,%eax,%eax
  4015c9:	89 44 24 1c          	mov    %eax,0x1c(%rsp)
  4015cd:	8b 44 24 0c          	mov    0xc(%rsp),%eax
  4015d1:	69 c0 2e d6 00 00    	imul   $0xd62e,%eax,%eax
  4015d7:	89 44 24 0c          	mov    %eax,0xc(%rsp)
  4015db:	8b 44 24 18          	mov    0x18(%rsp),%eax
  4015df:	69 c0 f7 bd 00 00    	imul   $0xbdf7,%eax,%eax
  4015e5:	89 44 24 18          	mov    %eax,0x18(%rsp)
  4015e9:	8b 04 24             	mov    (%rsp),%eax
  4015ec:	69 c0 2c ea 00 00    	imul   $0xea2c,%eax,%eax
  4015f2:	89 04 24             	mov    %eax,(%rsp)
  4015f5:	8b 44 24 08          	mov    0x8(%rsp),%eax
  4015f9:	69 c0 86 ed 00 00    	imul   $0xed86,%eax,%eax
  4015ff:	89 44 24 08          	mov    %eax,0x8(%rsp)
  401603:	8b 44 24 20          	mov    0x20(%rsp),%eax
  401607:	69 c0 e5 8e 00 00    	imul   $0x8ee5,%eax,%eax
  40160d:	89 44 24 20          	mov    %eax,0x20(%rsp)
  401611:	8b 44 24 1c          	mov    0x1c(%rsp),%eax
  401615:	69 c0 8d 68 00 00    	imul   $0x688d,%eax,%eax
  40161b:	89 44 24 1c          	mov    %eax,0x1c(%rsp)
  40161f:	8b 44 24 08          	mov    0x8(%rsp),%eax
  401623:	69 c0 4a 38 00 00    	imul   $0x384a,%eax,%eax
  401629:	89 44 24 08          	mov    %eax,0x8(%rsp)
  40162d:	8b 44 24 08          	mov    0x8(%rsp),%eax
  401631:	69 c0 e3 2c 00 00    	imul   $0x2ce3,%eax,%eax
  401637:	89 44 24 08          	mov    %eax,0x8(%rsp)
  40163b:	8b 04 24             	mov    (%rsp),%eax
  40163e:	69 c0 e0 05 00 00    	imul   $0x5e0,%eax,%eax
  401644:	89 04 24             	mov    %eax,(%rsp)
  401647:	8b 04 24             	mov    (%rsp),%eax
  40164a:	69 c0 c5 6c 00 00    	imul   $0x6cc5,%eax,%eax
  401650:	89 04 24             	mov    %eax,(%rsp)
  401653:	8b 44 24 1c          	mov    0x1c(%rsp),%eax
  401657:	69 c0 4d 0f 00 00    	imul   $0xf4d,%eax,%eax
  40165d:	89 44 24 1c          	mov    %eax,0x1c(%rsp)
  401661:	8b 44 24 0c          	mov    0xc(%rsp),%eax
  401665:	69 c0 5a 94 00 00    	imul   $0x945a,%eax,%eax
  40166b:	89 44 24 0c          	mov    %eax,0xc(%rsp)
  40166f:	8b 44 24 04          	mov    0x4(%rsp),%eax
  401673:	69 c0 03 9d 00 00    	imul   $0x9d03,%eax,%eax
  401679:	89 44 24 04          	mov    %eax,0x4(%rsp)
  40167d:	8b 44 24 10          	mov    0x10(%rsp),%eax
  401681:	69 c0 fb 49 00 00    	imul   $0x49fb,%eax,%eax
  401687:	89 44 24 10          	mov    %eax,0x10(%rsp)
  40168b:	8b 04 24             	mov    (%rsp),%eax
  40168e:	69 c0 26 98 00 00    	imul   $0x9826,%eax,%eax
  401694:	89 04 24             	mov    %eax,(%rsp)
  401697:	8b 44 24 10          	mov    0x10(%rsp),%eax
  40169b:	69 c0 dd 46 00 00    	imul   $0x46dd,%eax,%eax
  4016a1:	89 44 24 10          	mov    %eax,0x10(%rsp)
  4016a5:	8b 44 24 24          	mov    0x24(%rsp),%eax
  4016a9:	69 c0 13 8b 00 00    	imul   $0x8b13,%eax,%eax
  4016af:	89 44 24 24          	mov    %eax,0x24(%rsp)
  4016b3:	8b 44 24 24          	mov    0x24(%rsp),%eax
  4016b7:	69 c0 3d e6 00 00    	imul   $0xe63d,%eax,%eax
  4016bd:	89 44 24 24          	mov    %eax,0x24(%rsp)
  4016c1:	8b 44 24 1c          	mov    0x1c(%rsp),%eax
  4016c5:	69 c0 ff 69 00 00    	imul   $0x69ff,%eax,%eax
  4016cb:	89 44 24 1c          	mov    %eax,0x1c(%rsp)
  4016cf:	8b 04 24             	mov    (%rsp),%eax
  4016d2:	69 c0 74 e5 00 00    	imul   $0xe574,%eax,%eax
  4016d8:	89 04 24             	mov    %eax,(%rsp)
  4016db:	8b 44 24 14          	mov    0x14(%rsp),%eax
  4016df:	69 c0 c5 e9 00 00    	imul   $0xe9c5,%eax,%eax
  4016e5:	89 44 24 14          	mov    %eax,0x14(%rsp)
  4016e9:	8b 44 24 24          	mov    0x24(%rsp),%eax
  4016ed:	69 c0 4e 12 00 00    	imul   $0x124e,%eax,%eax
  4016f3:	89 44 24 24          	mov    %eax,0x24(%rsp)
  4016f7:	8b 44 24 1c          	mov    0x1c(%rsp),%eax
  4016fb:	69 c0 d6 80 00 00    	imul   $0x80d6,%eax,%eax
  401701:	89 44 24 1c          	mov    %eax,0x1c(%rsp)
  401705:	8b 44 24 10          	mov    0x10(%rsp),%eax
  401709:	69 c0 fc de 00 00    	imul   $0xdefc,%eax,%eax
  40170f:	89 44 24 10          	mov    %eax,0x10(%rsp)
  401713:	8b 44 24 04          	mov    0x4(%rsp),%eax
  401717:	69 c0 6b d6 00 00    	imul   $0xd66b,%eax,%eax
  40171d:	89 44 24 04          	mov    %eax,0x4(%rsp)
  401721:	8b 44 24 18          	mov    0x18(%rsp),%eax
  401725:	69 c0 f4 bd 00 00    	imul   $0xbdf4,%eax,%eax
  40172b:	89 44 24 18          	mov    %eax,0x18(%rsp)
  40172f:	8b 44 24 1c          	mov    0x1c(%rsp),%eax
  401733:	69 c0 48 99 00 00    	imul   $0x9948,%eax,%eax
  401739:	89 44 24 1c          	mov    %eax,0x1c(%rsp)
  40173d:	8b 44 24 0c          	mov    0xc(%rsp),%eax
  401741:	69 c0 79 ed 00 00    	imul   $0xed79,%eax,%eax
  401747:	89 44 24 0c          	mov    %eax,0xc(%rsp)
  40174b:	8b 44 24 20          	mov    0x20(%rsp),%eax
  40174f:	69 c0 b6 5c 00 00    	imul   $0x5cb6,%eax,%eax
  401755:	89 44 24 20          	mov    %eax,0x20(%rsp)
  401759:	8b 44 24 20          	mov    0x20(%rsp),%eax
  40175d:	69 c0 cd df 00 00    	imul   $0xdfcd,%eax,%eax
  401763:	89 44 24 20          	mov    %eax,0x20(%rsp)
  401767:	ba 00 00 00 00       	mov    $0x0,%edx
  40176c:	b8 00 00 00 00       	mov    $0x0,%eax
  401771:	eb 0a                	jmp    40177d <scramble+0x567>
  401773:	89 d1                	mov    %edx,%ecx
  401775:	8b 0c 8c             	mov    (%rsp,%rcx,4),%ecx
  401778:	01 c8                	add    %ecx,%eax
  40177a:	83 c2 01             	add    $0x1,%edx
  40177d:	83 fa 09             	cmp    $0x9,%edx
  401780:	76 f1                	jbe    401773 <scramble+0x55d>
  401782:	48 8b 74 24 28       	mov    0x28(%rsp),%rsi
  401787:	64 48 33 34 25 28 00 	xor    %fs:0x28,%rsi
  40178e:	00 00 
  401790:	74 05                	je     401797 <scramble+0x581>
  401792:	e8 89 f4 ff ff       	call   400c20 <__stack_chk_fail@plt>
  401797:	48 83 c4 38          	add    $0x38,%rsp
  40179b:	c3                   	ret

000000000040179c <getbuf>:
  40179c:	48 83 ec 18          	sub    $0x18,%rsp
  4017a0:	48 89 e7             	mov    %rsp,%rdi
  4017a3:	e8 9f 03 00 00       	call   401b47 <Gets>
  4017a8:	b8 01 00 00 00       	mov    $0x1,%eax
  4017ad:	48 83 c4 18          	add    $0x18,%rsp
  4017b1:	c3                   	ret

00000000004017b2 <touch1>:
  4017b2:	48 83 ec 08          	sub    $0x8,%rsp
  4017b6:	c7 05 3c 3d 20 00 01 	movl   $0x1,0x203d3c(%rip)        # 6054fc <vlevel>
  4017bd:	00 00 00 
  4017c0:	bf 97 30 40 00       	mov    $0x403097,%edi
  4017c5:	e8 36 f4 ff ff       	call   400c00 <puts@plt>
  4017ca:	bf 01 00 00 00       	mov    $0x1,%edi
  4017cf:	e8 b8 05 00 00       	call   401d8c <validate>
  4017d4:	bf 00 00 00 00       	mov    $0x0,%edi
  4017d9:	e8 82 f5 ff ff       	call   400d60 <exit@plt>

00000000004017de <touch2>:
  4017de:	48 83 ec 08          	sub    $0x8,%rsp
  4017e2:	89 fa                	mov    %edi,%edx
  4017e4:	c7 05 0e 3d 20 00 02 	movl   $0x2,0x203d0e(%rip)        # 6054fc <vlevel>
  4017eb:	00 00 00 
  4017ee:	39 3d 10 3d 20 00    	cmp    %edi,0x203d10(%rip)        # 605504 <cookie>
  4017f4:	75 20                	jne    401816 <touch2+0x38>
  4017f6:	be c0 30 40 00       	mov    $0x4030c0,%esi
  4017fb:	bf 01 00 00 00       	mov    $0x1,%edi
  401800:	b8 00 00 00 00       	mov    $0x0,%eax
  401805:	e8 16 f5 ff ff       	call   400d20 <__printf_chk@plt>
  40180a:	bf 02 00 00 00       	mov    $0x2,%edi
  40180f:	e8 78 05 00 00       	call   401d8c <validate>
  401814:	eb 1e                	jmp    401834 <touch2+0x56>
  401816:	be e8 30 40 00       	mov    $0x4030e8,%esi
  40181b:	bf 01 00 00 00       	mov    $0x1,%edi
  401820:	b8 00 00 00 00       	mov    $0x0,%eax
  401825:	e8 f6 f4 ff ff       	call   400d20 <__printf_chk@plt>
  40182a:	bf 02 00 00 00       	mov    $0x2,%edi
  40182f:	e8 1a 06 00 00       	call   401e4e <fail>
  401834:	bf 00 00 00 00       	mov    $0x0,%edi
  401839:	e8 22 f5 ff ff       	call   400d60 <exit@plt>

000000000040183e <hexmatch>:
  40183e:	41 54                	push   %r12
  401840:	55                   	push   %rbp
  401841:	53                   	push   %rbx
  401842:	48 83 c4 80          	add    $0xffffffffffffff80,%rsp
  401846:	89 fd                	mov    %edi,%ebp
  401848:	48 89 f3             	mov    %rsi,%rbx
  40184b:	64 48 8b 04 25 28 00 	mov    %fs:0x28,%rax
  401852:	00 00 
  401854:	48 89 44 24 78       	mov    %rax,0x78(%rsp)
  401859:	31 c0                	xor    %eax,%eax
  40185b:	e8 80 f4 ff ff       	call   400ce0 <random@plt>
  401860:	48 89 c1             	mov    %rax,%rcx
  401863:	48 ba 0b d7 a3 70 3d 	movabs $0xa3d70a3d70a3d70b,%rdx
  40186a:	0a d7 a3 
  40186d:	48 f7 ea             	imul   %rdx
  401870:	48 01 ca             	add    %rcx,%rdx
  401873:	48 c1 fa 06          	sar    $0x6,%rdx
  401877:	48 89 c8             	mov    %rcx,%rax
  40187a:	48 c1 f8 3f          	sar    $0x3f,%rax
  40187e:	48 29 c2             	sub    %rax,%rdx
  401881:	48 8d 04 92          	lea    (%rdx,%rdx,4),%rax
  401885:	48 8d 14 80          	lea    (%rax,%rax,4),%rdx
  401889:	48 8d 04 95 00 00 00 	lea    0x0(,%rdx,4),%rax
  401890:	00 
  401891:	48 29 c1             	sub    %rax,%rcx
  401894:	4c 8d 24 0c          	lea    (%rsp,%rcx,1),%r12
  401898:	41 89 e8             	mov    %ebp,%r8d
  40189b:	b9 b4 30 40 00       	mov    $0x4030b4,%ecx
  4018a0:	48 c7 c2 ff ff ff ff 	mov    $0xffffffffffffffff,%rdx
  4018a7:	be 01 00 00 00       	mov    $0x1,%esi
  4018ac:	4c 89 e7             	mov    %r12,%rdi
  4018af:	b8 00 00 00 00       	mov    $0x0,%eax
  4018b4:	e8 d7 f4 ff ff       	call   400d90 <__sprintf_chk@plt>
  4018b9:	ba 09 00 00 00       	mov    $0x9,%edx
  4018be:	4c 89 e6             	mov    %r12,%rsi
  4018c1:	48 89 df             	mov    %rbx,%rdi
  4018c4:	e8 17 f3 ff ff       	call   400be0 <strncmp@plt>
  4018c9:	85 c0                	test   %eax,%eax
  4018cb:	0f 94 c0             	sete   %al
  4018ce:	48 8b 5c 24 78       	mov    0x78(%rsp),%rbx
  4018d3:	64 48 33 1c 25 28 00 	xor    %fs:0x28,%rbx
  4018da:	00 00 
  4018dc:	74 05                	je     4018e3 <hexmatch+0xa5>
  4018de:	e8 3d f3 ff ff       	call   400c20 <__stack_chk_fail@plt>
  4018e3:	0f b6 c0             	movzbl %al,%eax
  4018e6:	48 83 ec 80          	sub    $0xffffffffffffff80,%rsp
  4018ea:	5b                   	pop    %rbx
  4018eb:	5d                   	pop    %rbp
  4018ec:	41 5c                	pop    %r12
  4018ee:	c3                   	ret

00000000004018ef <touch3>:
  4018ef:	53                   	push   %rbx
  4018f0:	48 89 fb             	mov    %rdi,%rbx
  4018f3:	c7 05 ff 3b 20 00 03 	movl   $0x3,0x203bff(%rip)        # 6054fc <vlevel>
  4018fa:	00 00 00 
  4018fd:	48 89 fe             	mov    %rdi,%rsi
  401900:	8b 3d fe 3b 20 00    	mov    0x203bfe(%rip),%edi        # 605504 <cookie>
  401906:	e8 33 ff ff ff       	call   40183e <hexmatch>
  40190b:	85 c0                	test   %eax,%eax
  40190d:	74 23                	je     401932 <touch3+0x43>
  40190f:	48 89 da             	mov    %rbx,%rdx
  401912:	be 10 31 40 00       	mov    $0x403110,%esi
  401917:	bf 01 00 00 00       	mov    $0x1,%edi
  40191c:	b8 00 00 00 00       	mov    $0x0,%eax
  401921:	e8 fa f3 ff ff       	call   400d20 <__printf_chk@plt>
  401926:	bf 03 00 00 00       	mov    $0x3,%edi
  40192b:	e8 5c 04 00 00       	call   401d8c <validate>
  401930:	eb 21                	jmp    401953 <touch3+0x64>
  401932:	48 89 da             	mov    %rbx,%rdx
  401935:	be 38 31 40 00       	mov    $0x403138,%esi
  40193a:	bf 01 00 00 00       	mov    $0x1,%edi
  40193f:	b8 00 00 00 00       	mov    $0x0,%eax
  401944:	e8 d7 f3 ff ff       	call   400d20 <__printf_chk@plt>
  401949:	bf 03 00 00 00       	mov    $0x3,%edi
  40194e:	e8 fb 04 00 00       	call   401e4e <fail>
  401953:	bf 00 00 00 00       	mov    $0x0,%edi
  401958:	e8 03 f4 ff ff       	call   400d60 <exit@plt>

000000000040195d <test>:
  40195d:	48 83 ec 08          	sub    $0x8,%rsp
  401961:	b8 00 00 00 00       	mov    $0x0,%eax
  401966:	e8 31 fe ff ff       	call   40179c <getbuf>
  40196b:	89 c2                	mov    %eax,%edx
  40196d:	be 60 31 40 00       	mov    $0x403160,%esi
  401972:	bf 01 00 00 00       	mov    $0x1,%edi
  401977:	b8 00 00 00 00       	mov    $0x0,%eax
  40197c:	e8 9f f3 ff ff       	call   400d20 <__printf_chk@plt>
  401981:	48 83 c4 08          	add    $0x8,%rsp
  401985:	c3                   	ret

0000000000401986 <start_farm>:
  401986:	b8 01 00 00 00       	mov    $0x1,%eax
  40198b:	c3                   	ret

000000000040198c <addval_272>:
  40198c:	8d 87 4c 89 c7 90    	lea    -0x6f3876b4(%rdi),%eax
  401992:	c3                   	ret

0000000000401993 <setval_218>:
  401993:	c7 07 58 90 94 c3    	movl   $0xc3949058,(%rdi)
  401999:	c3                   	ret

000000000040199a <getval_361>:
  40199a:	b8 48 89 c7 90       	mov    $0x90c78948,%eax
  40199f:	c3                   	ret

00000000004019a0 <addval_221>:
  4019a0:	8d 87 a0 58 c3 fa    	lea    -0x53ca760(%rdi),%eax
  4019a6:	c3                   	ret

00000000004019a7 <setval_202>:
  4019a7:	c7 07 d8 90 90 90    	movl   $0x909090d8,(%rdi)
  4019ad:	c3                   	ret

00000000004019ae <getval_132>:
  4019ae:	b8 48 8b c7 90       	mov    $0x90c78b48,%eax
  4019b3:	c3                   	ret

00000000004019b4 <getval_266>:
  4019b4:	b8 55 48 89 c7       	mov    $0xc7894855,%eax
  4019b9:	c3                   	ret

00000000004019ba <addval_216>:
  4019ba:	8d 87 06 0c 58 90    	lea    -0x6fa7f3fa(%rdi),%eax
  4019c0:	c3                   	ret

00000000004019c1 <mid_farm>:
  4019c1:	b8 01 00 00 00       	mov    $0x1,%eax
  4019c6:	c3                   	ret

00000000004019c7 <add_xy>:
  4019c7:	48 8d 04 37          	lea    (%rdi,%rsi,1),%rax
  4019cb:	c3                   	ret

00000000004019cc <addval_252>:
  4019cc:	8d 87 89 d6 48 db    	lea    -0x24b72977(%rdi),%eax
  4019d2:	c3                   	ret

00000000004019d3 <getval_488>:
  4019d3:	b8 48 89 e0 94       	mov    $0x94e08948,%eax
  4019d8:	c3                   	ret

00000000004019d9 <addval_269>:
  4019d9:	8d 87 68 89 e0 90    	lea    -0x6f1f7698(%rdi),%eax
  4019df:	c3                   	ret

00000000004019e0 <getval_483>:
  4019e0:	b8 48 89 e0 c3       	mov    $0xc3e08948,%eax
  4019e5:	c3                   	ret

00000000004019e6 <getval_340>:
  4019e6:	b8 89 d6 90 c3       	mov    $0xc390d689,%eax
  4019eb:	c3                   	ret

00000000004019ec <addval_196>:
  4019ec:	8d 87 89 d6 c4 d2    	lea    -0x2d3b2977(%rdi),%eax
  4019f2:	c3                   	ret

00000000004019f3 <getval_346>:
  4019f3:	b8 89 ca 20 d2       	mov    $0xd220ca89,%eax
  4019f8:	c3                   	ret

00000000004019f9 <setval_497>:
  4019f9:	c7 07 89 d6 c4 c9    	movl   $0xc9c4d689,(%rdi)
  4019ff:	c3                   	ret

0000000000401a00 <addval_353>:
  401a00:	8d 87 89 c1 90 c2    	lea    -0x3d6f3e77(%rdi),%eax
  401a06:	c3                   	ret

0000000000401a07 <setval_170>:
  401a07:	c7 07 48 c9 e0 90    	movl   $0x90e0c948,(%rdi)
  401a0d:	c3                   	ret

0000000000401a0e <setval_386>:
  401a0e:	c7 07 88 c1 38 db    	movl   $0xdb38c188,(%rdi)
  401a14:	c3                   	ret

0000000000401a15 <getval_308>:
  401a15:	b8 8d ca 90 90       	mov    $0x9090ca8d,%eax
  401a1a:	c3                   	ret

0000000000401a1b <setval_290>:
  401a1b:	c7 07 62 84 c9 ca    	movl   $0xcac98462,(%rdi)
  401a21:	c3                   	ret

0000000000401a22 <setval_357>:
  401a22:	c7 07 89 c1 90 90    	movl   $0x9090c189,(%rdi)
  401a28:	c3                   	ret

0000000000401a29 <setval_231>:
  401a29:	c7 07 89 d6 20 c9    	movl   $0xc920d689,(%rdi)
  401a2f:	c3                   	ret

0000000000401a30 <addval_270>:
  401a30:	8d 87 89 d6 a4 d2    	lea    -0x2d5b2977(%rdi),%eax
  401a36:	c3                   	ret

0000000000401a37 <setval_102>:
  401a37:	c7 07 88 ca 20 d2    	movl   $0xd220ca88,(%rdi)
  401a3d:	c3                   	ret

0000000000401a3e <setval_219>:
  401a3e:	c7 07 89 c1 84 c9    	movl   $0xc984c189,(%rdi)
  401a44:	c3                   	ret

0000000000401a45 <addval_461>:
  401a45:	8d 87 d7 48 89 e0    	lea    -0x1f76b729(%rdi),%eax
  401a4b:	c3                   	ret

0000000000401a4c <addval_301>:
  401a4c:	8d 87 91 0a 99 ca    	lea    -0x3566f56f(%rdi),%eax
  401a52:	c3                   	ret

0000000000401a53 <getval_298>:
  401a53:	b8 08 89 e0 c3       	mov    $0xc3e08908,%eax
  401a58:	c3                   	ret

0000000000401a59 <getval_445>:
  401a59:	b8 89 c1 c7 7e       	mov    $0x7ec7c189,%eax
  401a5e:	c3                   	ret

0000000000401a5f <getval_157>:
  401a5f:	b8 89 ca 90 90       	mov    $0x9090ca89,%eax
  401a64:	c3                   	ret

0000000000401a65 <addval_110>:
  401a65:	8d 87 89 ca c7 1d    	lea    0x1dc7ca89(%rdi),%eax
  401a6b:	c3                   	ret

0000000000401a6c <getval_224>:
  401a6c:	b8 aa d5 99 d6       	mov    $0xd699d5aa,%eax
  401a71:	c3                   	ret

0000000000401a72 <addval_427>:
  401a72:	8d 87 36 09 c1 90    	lea    -0x6f3ef6ca(%rdi),%eax
  401a78:	c3                   	ret

0000000000401a79 <setval_495>:
  401a79:	c7 07 48 89 e0 c1    	movl   $0xc1e08948,(%rdi)
  401a7f:	c3                   	ret

0000000000401a80 <getval_288>:
  401a80:	b8 89 c1 c1 ae       	mov    $0xaec1c189,%eax
  401a85:	c3                   	ret

0000000000401a86 <getval_327>:
  401a86:	b8 68 89 e0 c3       	mov    $0xc3e08968,%eax
  401a8b:	c3                   	ret

0000000000401a8c <setval_277>:
  401a8c:	c7 07 a9 9f 09 d6    	movl   $0xd6099fa9,(%rdi)
  401a92:	c3                   	ret

0000000000401a93 <setval_207>:
  401a93:	c7 07 99 ca 08 d2    	movl   $0xd208ca99,(%rdi)
  401a99:	c3                   	ret

0000000000401a9a <addval_279>:
  401a9a:	8d 87 81 c1 90 c3    	lea    -0x3c6f3e7f(%rdi),%eax
  401aa0:	c3                   	ret

0000000000401aa1 <end_farm>:
  401aa1:	b8 01 00 00 00       	mov    $0x1,%eax
  401aa6:	c3                   	ret

0000000000401aa7 <save_char>:
  401aa7:	8b 05 77 46 20 00    	mov    0x204677(%rip),%eax        # 606124 <gets_cnt>
  401aad:	3d ff 03 00 00       	cmp    $0x3ff,%eax
  401ab2:	7f 49                	jg     401afd <save_char+0x56>
  401ab4:	8d 14 40             	lea    (%rax,%rax,2),%edx
  401ab7:	89 f9                	mov    %edi,%ecx
  401ab9:	c0 e9 04             	shr    $0x4,%cl
  401abc:	83 e1 0f             	and    $0xf,%ecx
  401abf:	0f b6 b1 80 34 40 00 	movzbl 0x403480(%rcx),%esi
  401ac6:	48 63 ca             	movslq %edx,%rcx
  401ac9:	40 88 b1 20 55 60 00 	mov    %sil,0x605520(%rcx)
  401ad0:	8d 4a 01             	lea    0x1(%rdx),%ecx
  401ad3:	83 e7 0f             	and    $0xf,%edi
  401ad6:	0f b6 b7 80 34 40 00 	movzbl 0x403480(%rdi),%esi
  401add:	48 63 c9             	movslq %ecx,%rcx
  401ae0:	40 88 b1 20 55 60 00 	mov    %sil,0x605520(%rcx)
  401ae7:	83 c2 02             	add    $0x2,%edx
  401aea:	48 63 d2             	movslq %edx,%rdx
  401aed:	c6 82 20 55 60 00 20 	movb   $0x20,0x605520(%rdx)
  401af4:	83 c0 01             	add    $0x1,%eax
  401af7:	89 05 27 46 20 00    	mov    %eax,0x204627(%rip)        # 606124 <gets_cnt>
  401afd:	f3 c3                	repz ret

0000000000401aff <save_term>:
  401aff:	8b 05 1f 46 20 00    	mov    0x20461f(%rip),%eax        # 606124 <gets_cnt>
  401b05:	8d 04 40             	lea    (%rax,%rax,2),%eax
  401b08:	48 98                	cltq
  401b0a:	c6 80 20 55 60 00 00 	movb   $0x0,0x605520(%rax)
  401b11:	c3                   	ret

0000000000401b12 <check_fail>:
  401b12:	48 83 ec 08          	sub    $0x8,%rsp
  401b16:	0f be 15 0b 46 20 00 	movsbl 0x20460b(%rip),%edx        # 606128 <target_prefix>
  401b1d:	41 b8 20 55 60 00    	mov    $0x605520,%r8d
  401b23:	8b 0d cf 39 20 00    	mov    0x2039cf(%rip),%ecx        # 6054f8 <check_level>
  401b29:	be 83 31 40 00       	mov    $0x403183,%esi
  401b2e:	bf 01 00 00 00       	mov    $0x1,%edi
  401b33:	b8 00 00 00 00       	mov    $0x0,%eax
  401b38:	e8 e3 f1 ff ff       	call   400d20 <__printf_chk@plt>
  401b3d:	bf 01 00 00 00       	mov    $0x1,%edi
  401b42:	e8 19 f2 ff ff       	call   400d60 <exit@plt>

0000000000401b47 <Gets>:
  401b47:	41 54                	push   %r12
  401b49:	55                   	push   %rbp
  401b4a:	53                   	push   %rbx
  401b4b:	49 89 fc             	mov    %rdi,%r12
  401b4e:	c7 05 cc 45 20 00 00 	movl   $0x0,0x2045cc(%rip)        # 606124 <gets_cnt>
  401b55:	00 00 00 
  401b58:	48 89 fb             	mov    %rdi,%rbx
  401b5b:	eb 11                	jmp    401b6e <Gets+0x27>
  401b5d:	48 8d 6b 01          	lea    0x1(%rbx),%rbp
  401b61:	88 03                	mov    %al,(%rbx)
  401b63:	0f b6 f8             	movzbl %al,%edi
  401b66:	e8 3c ff ff ff       	call   401aa7 <save_char>
  401b6b:	48 89 eb             	mov    %rbp,%rbx
  401b6e:	48 8b 3d 7b 39 20 00 	mov    0x20397b(%rip),%rdi        # 6054f0 <infile>
  401b75:	e8 76 f1 ff ff       	call   400cf0 <_IO_getc@plt>
  401b7a:	83 f8 ff             	cmp    $0xffffffff,%eax
  401b7d:	74 05                	je     401b84 <Gets+0x3d>
  401b7f:	83 f8 0a             	cmp    $0xa,%eax
  401b82:	75 d9                	jne    401b5d <Gets+0x16>
  401b84:	c6 03 00             	movb   $0x0,(%rbx)
  401b87:	b8 00 00 00 00       	mov    $0x0,%eax
  401b8c:	e8 6e ff ff ff       	call   401aff <save_term>
  401b91:	4c 89 e0             	mov    %r12,%rax
  401b94:	5b                   	pop    %rbx
  401b95:	5d                   	pop    %rbp
  401b96:	41 5c                	pop    %r12
  401b98:	c3                   	ret

0000000000401b99 <notify_server>:
  401b99:	53                   	push   %rbx
  401b9a:	48 81 ec 10 40 00 00 	sub    $0x4010,%rsp
  401ba1:	64 48 8b 04 25 28 00 	mov    %fs:0x28,%rax
  401ba8:	00 00 
  401baa:	48 89 84 24 08 40 00 	mov    %rax,0x4008(%rsp)
  401bb1:	00 
  401bb2:	31 c0                	xor    %eax,%eax
  401bb4:	83 3d 4d 39 20 00 00 	cmpl   $0x0,0x20394d(%rip)        # 605508 <is_checker>
  401bbb:	0f 85 aa 01 00 00    	jne    401d6b <notify_server+0x1d2>
  401bc1:	89 fb                	mov    %edi,%ebx
  401bc3:	8b 05 5b 45 20 00    	mov    0x20455b(%rip),%eax        # 606124 <gets_cnt>
  401bc9:	83 c0 64             	add    $0x64,%eax
  401bcc:	3d 00 20 00 00       	cmp    $0x2000,%eax
  401bd1:	7e 1e                	jle    401bf1 <notify_server+0x58>
  401bd3:	be b8 32 40 00       	mov    $0x4032b8,%esi
  401bd8:	bf 01 00 00 00       	mov    $0x1,%edi
  401bdd:	b8 00 00 00 00       	mov    $0x0,%eax
  401be2:	e8 39 f1 ff ff       	call   400d20 <__printf_chk@plt>
  401be7:	bf 01 00 00 00       	mov    $0x1,%edi
  401bec:	e8 6f f1 ff ff       	call   400d60 <exit@plt>
  401bf1:	0f be 05 30 45 20 00 	movsbl 0x204530(%rip),%eax        # 606128 <target_prefix>
  401bf8:	83 3d 89 38 20 00 00 	cmpl   $0x0,0x203889(%rip)        # 605488 <notify>
  401bff:	74 08                	je     401c09 <notify_server+0x70>
  401c01:	8b 15 f9 38 20 00    	mov    0x2038f9(%rip),%edx        # 605500 <authkey>
  401c07:	eb 05                	jmp    401c0e <notify_server+0x75>
  401c09:	ba ff ff ff ff       	mov    $0xffffffff,%edx
  401c0e:	85 db                	test   %ebx,%ebx
  401c10:	74 08                	je     401c1a <notify_server+0x81>
  401c12:	41 b9 99 31 40 00    	mov    $0x403199,%r9d
  401c18:	eb 06                	jmp    401c20 <notify_server+0x87>
  401c1a:	41 b9 9e 31 40 00    	mov    $0x40319e,%r9d
  401c20:	68 20 55 60 00       	push   $0x605520
  401c25:	56                   	push   %rsi
  401c26:	50                   	push   %rax
  401c27:	52                   	push   %rdx
  401c28:	44 8b 05 19 35 20 00 	mov    0x203519(%rip),%r8d        # 605148 <target_id>
  401c2f:	b9 a3 31 40 00       	mov    $0x4031a3,%ecx
  401c34:	ba 00 20 00 00       	mov    $0x2000,%edx
  401c39:	be 01 00 00 00       	mov    $0x1,%esi
  401c3e:	48 8d 7c 24 20       	lea    0x20(%rsp),%rdi
  401c43:	b8 00 00 00 00       	mov    $0x0,%eax
  401c48:	e8 43 f1 ff ff       	call   400d90 <__sprintf_chk@plt>
  401c4d:	48 83 c4 20          	add    $0x20,%rsp
  401c51:	83 3d 30 38 20 00 00 	cmpl   $0x0,0x203830(%rip)        # 605488 <notify>
  401c58:	0f 84 81 00 00 00    	je     401cdf <notify_server+0x146>
  401c5e:	85 db                	test   %ebx,%ebx
  401c60:	74 6e                	je     401cd0 <notify_server+0x137>
  401c62:	4c 8d 8c 24 00 20 00 	lea    0x2000(%rsp),%r9
  401c69:	00 
  401c6a:	41 b8 00 00 00 00    	mov    $0x0,%r8d
  401c70:	48 89 e1             	mov    %rsp,%rcx
  401c73:	48 8b 15 d6 34 20 00 	mov    0x2034d6(%rip),%rdx        # 605150 <lab>
  401c7a:	48 8b 35 d7 34 20 00 	mov    0x2034d7(%rip),%rsi        # 605158 <course>
  401c81:	48 8b 3d b8 34 20 00 	mov    0x2034b8(%rip),%rdi        # 605140 <user_id>
  401c88:	e8 d3 0f 00 00       	call   402c60 <driver_post>
  401c8d:	85 c0                	test   %eax,%eax
  401c8f:	79 26                	jns    401cb7 <notify_server+0x11e>
  401c91:	48 8d 94 24 00 20 00 	lea    0x2000(%rsp),%rdx
  401c98:	00 
  401c99:	be bf 31 40 00       	mov    $0x4031bf,%esi
  401c9e:	bf 01 00 00 00       	mov    $0x1,%edi
  401ca3:	b8 00 00 00 00       	mov    $0x0,%eax
  401ca8:	e8 73 f0 ff ff       	call   400d20 <__printf_chk@plt>
  401cad:	bf 01 00 00 00       	mov    $0x1,%edi
  401cb2:	e8 a9 f0 ff ff       	call   400d60 <exit@plt>
  401cb7:	bf e8 32 40 00       	mov    $0x4032e8,%edi
  401cbc:	e8 3f ef ff ff       	call   400c00 <puts@plt>
  401cc1:	bf cb 31 40 00       	mov    $0x4031cb,%edi
  401cc6:	e8 35 ef ff ff       	call   400c00 <puts@plt>
  401ccb:	e9 9b 00 00 00       	jmp    401d6b <notify_server+0x1d2>
  401cd0:	bf d5 31 40 00       	mov    $0x4031d5,%edi
  401cd5:	e8 26 ef ff ff       	call   400c00 <puts@plt>
  401cda:	e9 8c 00 00 00       	jmp    401d6b <notify_server+0x1d2>
  401cdf:	85 db                	test   %ebx,%ebx
  401ce1:	74 07                	je     401cea <notify_server+0x151>
  401ce3:	ba 99 31 40 00       	mov    $0x403199,%edx
  401ce8:	eb 05                	jmp    401cef <notify_server+0x156>
  401cea:	ba 9e 31 40 00       	mov    $0x40319e,%edx
  401cef:	be 20 33 40 00       	mov    $0x403320,%esi
  401cf4:	bf 01 00 00 00       	mov    $0x1,%edi
  401cf9:	b8 00 00 00 00       	mov    $0x0,%eax
  401cfe:	e8 1d f0 ff ff       	call   400d20 <__printf_chk@plt>
  401d03:	48 8b 15 36 34 20 00 	mov    0x203436(%rip),%rdx        # 605140 <user_id>
  401d0a:	be dc 31 40 00       	mov    $0x4031dc,%esi
  401d0f:	bf 01 00 00 00       	mov    $0x1,%edi
  401d14:	b8 00 00 00 00       	mov    $0x0,%eax
  401d19:	e8 02 f0 ff ff       	call   400d20 <__printf_chk@plt>
  401d1e:	48 8b 15 33 34 20 00 	mov    0x203433(%rip),%rdx        # 605158 <course>
  401d25:	be e9 31 40 00       	mov    $0x4031e9,%esi
  401d2a:	bf 01 00 00 00       	mov    $0x1,%edi
  401d2f:	b8 00 00 00 00       	mov    $0x0,%eax
  401d34:	e8 e7 ef ff ff       	call   400d20 <__printf_chk@plt>
  401d39:	48 8b 15 10 34 20 00 	mov    0x203410(%rip),%rdx        # 605150 <lab>
  401d40:	be f5 31 40 00       	mov    $0x4031f5,%esi
  401d45:	bf 01 00 00 00       	mov    $0x1,%edi
  401d4a:	b8 00 00 00 00       	mov    $0x0,%eax
  401d4f:	e8 cc ef ff ff       	call   400d20 <__printf_chk@plt>
  401d54:	48 89 e2             	mov    %rsp,%rdx
  401d57:	be fe 31 40 00       	mov    $0x4031fe,%esi
  401d5c:	bf 01 00 00 00       	mov    $0x1,%edi
  401d61:	b8 00 00 00 00       	mov    $0x0,%eax
  401d66:	e8 b5 ef ff ff       	call   400d20 <__printf_chk@plt>
  401d6b:	48 8b 84 24 08 40 00 	mov    0x4008(%rsp),%rax
  401d72:	00 
  401d73:	64 48 33 04 25 28 00 	xor    %fs:0x28,%rax
  401d7a:	00 00 
  401d7c:	74 05                	je     401d83 <notify_server+0x1ea>
  401d7e:	e8 9d ee ff ff       	call   400c20 <__stack_chk_fail@plt>
  401d83:	48 81 c4 10 40 00 00 	add    $0x4010,%rsp
  401d8a:	5b                   	pop    %rbx
  401d8b:	c3                   	ret

0000000000401d8c <validate>:
  401d8c:	53                   	push   %rbx
  401d8d:	89 fb                	mov    %edi,%ebx
  401d8f:	83 3d 72 37 20 00 00 	cmpl   $0x0,0x203772(%rip)        # 605508 <is_checker>
  401d96:	74 6b                	je     401e03 <validate+0x77>
  401d98:	39 3d 5e 37 20 00    	cmp    %edi,0x20375e(%rip)        # 6054fc <vlevel>
  401d9e:	74 14                	je     401db4 <validate+0x28>
  401da0:	bf 0a 32 40 00       	mov    $0x40320a,%edi
  401da5:	e8 56 ee ff ff       	call   400c00 <puts@plt>
  401daa:	b8 00 00 00 00       	mov    $0x0,%eax
  401daf:	e8 5e fd ff ff       	call   401b12 <check_fail>
  401db4:	8b 15 3e 37 20 00    	mov    0x20373e(%rip),%edx        # 6054f8 <check_level>
  401dba:	39 d7                	cmp    %edx,%edi
  401dbc:	74 20                	je     401dde <validate+0x52>
  401dbe:	89 f9                	mov    %edi,%ecx
  401dc0:	be 48 33 40 00       	mov    $0x403348,%esi
  401dc5:	bf 01 00 00 00       	mov    $0x1,%edi
  401dca:	b8 00 00 00 00       	mov    $0x0,%eax
  401dcf:	e8 4c ef ff ff       	call   400d20 <__printf_chk@plt>
  401dd4:	b8 00 00 00 00       	mov    $0x0,%eax
  401dd9:	e8 34 fd ff ff       	call   401b12 <check_fail>
  401dde:	0f be 15 43 43 20 00 	movsbl 0x204343(%rip),%edx        # 606128 <target_prefix>
  401de5:	41 b8 20 55 60 00    	mov    $0x605520,%r8d
  401deb:	89 f9                	mov    %edi,%ecx
  401ded:	be 28 32 40 00       	mov    $0x403228,%esi
  401df2:	bf 01 00 00 00       	mov    $0x1,%edi
  401df7:	b8 00 00 00 00       	mov    $0x0,%eax
  401dfc:	e8 1f ef ff ff       	call   400d20 <__printf_chk@plt>
  401e01:	eb 49                	jmp    401e4c <validate+0xc0>
  401e03:	3b 3d f3 36 20 00    	cmp    0x2036f3(%rip),%edi        # 6054fc <vlevel>
  401e09:	74 18                	je     401e23 <validate+0x97>
  401e0b:	bf 0a 32 40 00       	mov    $0x40320a,%edi
  401e10:	e8 eb ed ff ff       	call   400c00 <puts@plt>
  401e15:	89 de                	mov    %ebx,%esi
  401e17:	bf 00 00 00 00       	mov    $0x0,%edi
  401e1c:	e8 78 fd ff ff       	call   401b99 <notify_server>
  401e21:	eb 29                	jmp    401e4c <validate+0xc0>
  401e23:	0f be 0d fe 42 20 00 	movsbl 0x2042fe(%rip),%ecx        # 606128 <target_prefix>
  401e2a:	89 fa                	mov    %edi,%edx
  401e2c:	be 70 33 40 00       	mov    $0x403370,%esi
  401e31:	bf 01 00 00 00       	mov    $0x1,%edi
  401e36:	b8 00 00 00 00       	mov    $0x0,%eax
  401e3b:	e8 e0 ee ff ff       	call   400d20 <__printf_chk@plt>
  401e40:	89 de                	mov    %ebx,%esi
  401e42:	bf 01 00 00 00       	mov    $0x1,%edi
  401e47:	e8 4d fd ff ff       	call   401b99 <notify_server>
  401e4c:	5b                   	pop    %rbx
  401e4d:	c3                   	ret

0000000000401e4e <fail>:
  401e4e:	48 83 ec 08          	sub    $0x8,%rsp
  401e52:	83 3d af 36 20 00 00 	cmpl   $0x0,0x2036af(%rip)        # 605508 <is_checker>
  401e59:	74 0a                	je     401e65 <fail+0x17>
  401e5b:	b8 00 00 00 00       	mov    $0x0,%eax
  401e60:	e8 ad fc ff ff       	call   401b12 <check_fail>
  401e65:	89 fe                	mov    %edi,%esi
  401e67:	bf 00 00 00 00       	mov    $0x0,%edi
  401e6c:	e8 28 fd ff ff       	call   401b99 <notify_server>
  401e71:	48 83 c4 08          	add    $0x8,%rsp
  401e75:	c3                   	ret

0000000000401e76 <bushandler>:
  401e76:	48 83 ec 08          	sub    $0x8,%rsp
  401e7a:	83 3d 87 36 20 00 00 	cmpl   $0x0,0x203687(%rip)        # 605508 <is_checker>
  401e81:	74 14                	je     401e97 <bushandler+0x21>
  401e83:	bf 3d 32 40 00       	mov    $0x40323d,%edi
  401e88:	e8 73 ed ff ff       	call   400c00 <puts@plt>
  401e8d:	b8 00 00 00 00       	mov    $0x0,%eax
  401e92:	e8 7b fc ff ff       	call   401b12 <check_fail>
  401e97:	bf a8 33 40 00       	mov    $0x4033a8,%edi
  401e9c:	e8 5f ed ff ff       	call   400c00 <puts@plt>
  401ea1:	bf 47 32 40 00       	mov    $0x403247,%edi
  401ea6:	e8 55 ed ff ff       	call   400c00 <puts@plt>
  401eab:	be 00 00 00 00       	mov    $0x0,%esi
  401eb0:	bf 00 00 00 00       	mov    $0x0,%edi
  401eb5:	e8 df fc ff ff       	call   401b99 <notify_server>
  401eba:	bf 01 00 00 00       	mov    $0x1,%edi
  401ebf:	e8 9c ee ff ff       	call   400d60 <exit@plt>

0000000000401ec4 <seghandler>:
  401ec4:	48 83 ec 08          	sub    $0x8,%rsp
  401ec8:	83 3d 39 36 20 00 00 	cmpl   $0x0,0x203639(%rip)        # 605508 <is_checker>
  401ecf:	74 14                	je     401ee5 <seghandler+0x21>
  401ed1:	bf 5d 32 40 00       	mov    $0x40325d,%edi
  401ed6:	e8 25 ed ff ff       	call   400c00 <puts@plt>
  401edb:	b8 00 00 00 00       	mov    $0x0,%eax
  401ee0:	e8 2d fc ff ff       	call   401b12 <check_fail>
  401ee5:	bf c8 33 40 00       	mov    $0x4033c8,%edi
  401eea:	e8 11 ed ff ff       	call   400c00 <puts@plt>
  401eef:	bf 47 32 40 00       	mov    $0x403247,%edi
  401ef4:	e8 07 ed ff ff       	call   400c00 <puts@plt>
  401ef9:	be 00 00 00 00       	mov    $0x0,%esi
  401efe:	bf 00 00 00 00       	mov    $0x0,%edi
  401f03:	e8 91 fc ff ff       	call   401b99 <notify_server>
  401f08:	bf 01 00 00 00       	mov    $0x1,%edi
  401f0d:	e8 4e ee ff ff       	call   400d60 <exit@plt>

0000000000401f12 <illegalhandler>:
  401f12:	48 83 ec 08          	sub    $0x8,%rsp
  401f16:	83 3d eb 35 20 00 00 	cmpl   $0x0,0x2035eb(%rip)        # 605508 <is_checker>
  401f1d:	74 14                	je     401f33 <illegalhandler+0x21>
  401f1f:	bf 70 32 40 00       	mov    $0x403270,%edi
  401f24:	e8 d7 ec ff ff       	call   400c00 <puts@plt>
  401f29:	b8 00 00 00 00       	mov    $0x0,%eax
  401f2e:	e8 df fb ff ff       	call   401b12 <check_fail>
  401f33:	bf f0 33 40 00       	mov    $0x4033f0,%edi
  401f38:	e8 c3 ec ff ff       	call   400c00 <puts@plt>
  401f3d:	bf 47 32 40 00       	mov    $0x403247,%edi
  401f42:	e8 b9 ec ff ff       	call   400c00 <puts@plt>
  401f47:	be 00 00 00 00       	mov    $0x0,%esi
  401f4c:	bf 00 00 00 00       	mov    $0x0,%edi
  401f51:	e8 43 fc ff ff       	call   401b99 <notify_server>
  401f56:	bf 01 00 00 00       	mov    $0x1,%edi
  401f5b:	e8 00 ee ff ff       	call   400d60 <exit@plt>

0000000000401f60 <sigalrmhandler>:
  401f60:	48 83 ec 08          	sub    $0x8,%rsp
  401f64:	83 3d 9d 35 20 00 00 	cmpl   $0x0,0x20359d(%rip)        # 605508 <is_checker>
  401f6b:	74 14                	je     401f81 <sigalrmhandler+0x21>
  401f6d:	bf 84 32 40 00       	mov    $0x403284,%edi
  401f72:	e8 89 ec ff ff       	call   400c00 <puts@plt>
  401f77:	b8 00 00 00 00       	mov    $0x0,%eax
  401f7c:	e8 91 fb ff ff       	call   401b12 <check_fail>
  401f81:	ba 05 00 00 00       	mov    $0x5,%edx
  401f86:	be 20 34 40 00       	mov    $0x403420,%esi
  401f8b:	bf 01 00 00 00       	mov    $0x1,%edi
  401f90:	b8 00 00 00 00       	mov    $0x0,%eax
  401f95:	e8 86 ed ff ff       	call   400d20 <__printf_chk@plt>
  401f9a:	be 00 00 00 00       	mov    $0x0,%esi
  401f9f:	bf 00 00 00 00       	mov    $0x0,%edi
  401fa4:	e8 f0 fb ff ff       	call   401b99 <notify_server>
  401fa9:	bf 01 00 00 00       	mov    $0x1,%edi
  401fae:	e8 ad ed ff ff       	call   400d60 <exit@plt>

0000000000401fb3 <launch>:
  401fb3:	55                   	push   %rbp
  401fb4:	48 89 e5             	mov    %rsp,%rbp
  401fb7:	48 83 ec 10          	sub    $0x10,%rsp
  401fbb:	48 89 fa             	mov    %rdi,%rdx
  401fbe:	64 48 8b 04 25 28 00 	mov    %fs:0x28,%rax
  401fc5:	00 00 
  401fc7:	48 89 45 f8          	mov    %rax,-0x8(%rbp)
  401fcb:	31 c0                	xor    %eax,%eax
  401fcd:	48 8d 47 1e          	lea    0x1e(%rdi),%rax
  401fd1:	48 83 e0 f0          	and    $0xfffffffffffffff0,%rax
  401fd5:	48 29 c4             	sub    %rax,%rsp
  401fd8:	48 8d 7c 24 0f       	lea    0xf(%rsp),%rdi
  401fdd:	48 83 e7 f0          	and    $0xfffffffffffffff0,%rdi
  401fe1:	be f4 00 00 00       	mov    $0xf4,%esi
  401fe6:	e8 55 ec ff ff       	call   400c40 <memset@plt>
  401feb:	48 8b 05 ae 34 20 00 	mov    0x2034ae(%rip),%rax        # 6054a0 <stdin@GLIBC_2.2.5>
  401ff2:	48 39 05 f7 34 20 00 	cmp    %rax,0x2034f7(%rip)        # 6054f0 <infile>
  401ff9:	75 14                	jne    40200f <launch+0x5c>
  401ffb:	be 8c 32 40 00       	mov    $0x40328c,%esi
  402000:	bf 01 00 00 00       	mov    $0x1,%edi
  402005:	b8 00 00 00 00       	mov    $0x0,%eax
  40200a:	e8 11 ed ff ff       	call   400d20 <__printf_chk@plt>
  40200f:	c7 05 e3 34 20 00 00 	movl   $0x0,0x2034e3(%rip)        # 6054fc <vlevel>
  402016:	00 00 00 
  402019:	b8 00 00 00 00       	mov    $0x0,%eax
  40201e:	e8 3a f9 ff ff       	call   40195d <test>
  402023:	83 3d de 34 20 00 00 	cmpl   $0x0,0x2034de(%rip)        # 605508 <is_checker>
  40202a:	74 14                	je     402040 <launch+0x8d>
  40202c:	bf 99 32 40 00       	mov    $0x403299,%edi
  402031:	e8 ca eb ff ff       	call   400c00 <puts@plt>
  402036:	b8 00 00 00 00       	mov    $0x0,%eax
  40203b:	e8 d2 fa ff ff       	call   401b12 <check_fail>
  402040:	bf a4 32 40 00       	mov    $0x4032a4,%edi
  402045:	e8 b6 eb ff ff       	call   400c00 <puts@plt>
  40204a:	48 8b 45 f8          	mov    -0x8(%rbp),%rax
  40204e:	64 48 33 04 25 28 00 	xor    %fs:0x28,%rax
  402055:	00 00 
  402057:	74 05                	je     40205e <launch+0xab>
  402059:	e8 c2 eb ff ff       	call   400c20 <__stack_chk_fail@plt>
  40205e:	c9                   	leave
  40205f:	c3                   	ret

0000000000402060 <stable_launch>:
  402060:	53                   	push   %rbx
  402061:	48 89 3d 80 34 20 00 	mov    %rdi,0x203480(%rip)        # 6054e8 <global_offset>
  402068:	41 b9 00 00 00 00    	mov    $0x0,%r9d
  40206e:	41 b8 00 00 00 00    	mov    $0x0,%r8d
  402074:	b9 32 01 00 00       	mov    $0x132,%ecx
  402079:	ba 07 00 00 00       	mov    $0x7,%edx
  40207e:	be 00 00 10 00       	mov    $0x100000,%esi
  402083:	bf 00 60 58 55       	mov    $0x55586000,%edi
  402088:	e8 a3 eb ff ff       	call   400c30 <mmap@plt>
  40208d:	48 89 c3             	mov    %rax,%rbx
  402090:	48 3d 00 60 58 55    	cmp    $0x55586000,%rax
  402096:	74 37                	je     4020cf <stable_launch+0x6f>
  402098:	be 00 00 10 00       	mov    $0x100000,%esi
  40209d:	48 89 c7             	mov    %rax,%rdi
  4020a0:	e8 6b ec ff ff       	call   400d10 <munmap@plt>
  4020a5:	b9 00 60 58 55       	mov    $0x55586000,%ecx
  4020aa:	ba 58 34 40 00       	mov    $0x403458,%edx
  4020af:	be 01 00 00 00       	mov    $0x1,%esi
  4020b4:	48 8b 3d 05 34 20 00 	mov    0x203405(%rip),%rdi        # 6054c0 <stderr@GLIBC_2.2.5>
  4020bb:	b8 00 00 00 00       	mov    $0x0,%eax
  4020c0:	e8 bb ec ff ff       	call   400d80 <__fprintf_chk@plt>
  4020c5:	bf 01 00 00 00       	mov    $0x1,%edi
  4020ca:	e8 91 ec ff ff       	call   400d60 <exit@plt>
  4020cf:	48 8d 90 f8 ff 0f 00 	lea    0xffff8(%rax),%rdx
  4020d6:	48 89 15 53 40 20 00 	mov    %rdx,0x204053(%rip)        # 606130 <stack_top>
  4020dd:	48 89 e0             	mov    %rsp,%rax
  4020e0:	48 89 d4             	mov    %rdx,%rsp
  4020e3:	48 89 c2             	mov    %rax,%rdx
  4020e6:	48 89 15 f3 33 20 00 	mov    %rdx,0x2033f3(%rip)        # 6054e0 <global_save_stack>
  4020ed:	48 8b 3d f4 33 20 00 	mov    0x2033f4(%rip),%rdi        # 6054e8 <global_offset>
  4020f4:	e8 ba fe ff ff       	call   401fb3 <launch>
  4020f9:	48 8b 05 e0 33 20 00 	mov    0x2033e0(%rip),%rax        # 6054e0 <global_save_stack>
  402100:	48 89 c4             	mov    %rax,%rsp
  402103:	be 00 00 10 00       	mov    $0x100000,%esi
  402108:	48 89 df             	mov    %rbx,%rdi
  40210b:	e8 00 ec ff ff       	call   400d10 <munmap@plt>
  402110:	5b                   	pop    %rbx
  402111:	c3                   	ret

0000000000402112 <rio_readinitb>:
  402112:	89 37                	mov    %esi,(%rdi)
  402114:	c7 47 04 00 00 00 00 	movl   $0x0,0x4(%rdi)
  40211b:	48 8d 47 10          	lea    0x10(%rdi),%rax
  40211f:	48 89 47 08          	mov    %rax,0x8(%rdi)
  402123:	c3                   	ret

0000000000402124 <sigalrm_handler>:
  402124:	48 83 ec 08          	sub    $0x8,%rsp
  402128:	b9 00 00 00 00       	mov    $0x0,%ecx
  40212d:	ba 90 34 40 00       	mov    $0x403490,%edx
  402132:	be 01 00 00 00       	mov    $0x1,%esi
  402137:	48 8b 3d 82 33 20 00 	mov    0x203382(%rip),%rdi        # 6054c0 <stderr@GLIBC_2.2.5>
  40213e:	b8 00 00 00 00       	mov    $0x0,%eax
  402143:	e8 38 ec ff ff       	call   400d80 <__fprintf_chk@plt>
  402148:	bf 01 00 00 00       	mov    $0x1,%edi
  40214d:	e8 0e ec ff ff       	call   400d60 <exit@plt>

0000000000402152 <rio_writen>:
  402152:	41 55                	push   %r13
  402154:	41 54                	push   %r12
  402156:	55                   	push   %rbp
  402157:	53                   	push   %rbx
  402158:	48 83 ec 08          	sub    $0x8,%rsp
  40215c:	41 89 fc             	mov    %edi,%r12d
  40215f:	48 89 f5             	mov    %rsi,%rbp
  402162:	49 89 d5             	mov    %rdx,%r13
  402165:	48 89 d3             	mov    %rdx,%rbx
  402168:	eb 28                	jmp    402192 <rio_writen+0x40>
  40216a:	48 89 da             	mov    %rbx,%rdx
  40216d:	48 89 ee             	mov    %rbp,%rsi
  402170:	44 89 e7             	mov    %r12d,%edi
  402173:	e8 98 ea ff ff       	call   400c10 <write@plt>
  402178:	48 85 c0             	test   %rax,%rax
  40217b:	7f 0f                	jg     40218c <rio_writen+0x3a>
  40217d:	e8 3e ea ff ff       	call   400bc0 <__errno_location@plt>
  402182:	83 38 04             	cmpl   $0x4,(%rax)
  402185:	75 15                	jne    40219c <rio_writen+0x4a>
  402187:	b8 00 00 00 00       	mov    $0x0,%eax
  40218c:	48 29 c3             	sub    %rax,%rbx
  40218f:	48 01 c5             	add    %rax,%rbp
  402192:	48 85 db             	test   %rbx,%rbx
  402195:	75 d3                	jne    40216a <rio_writen+0x18>
  402197:	4c 89 e8             	mov    %r13,%rax
  40219a:	eb 07                	jmp    4021a3 <rio_writen+0x51>
  40219c:	48 c7 c0 ff ff ff ff 	mov    $0xffffffffffffffff,%rax
  4021a3:	48 83 c4 08          	add    $0x8,%rsp
  4021a7:	5b                   	pop    %rbx
  4021a8:	5d                   	pop    %rbp
  4021a9:	41 5c                	pop    %r12
  4021ab:	41 5d                	pop    %r13
  4021ad:	c3                   	ret

00000000004021ae <rio_read>:
  4021ae:	41 55                	push   %r13
  4021b0:	41 54                	push   %r12
  4021b2:	55                   	push   %rbp
  4021b3:	53                   	push   %rbx
  4021b4:	48 83 ec 08          	sub    $0x8,%rsp
  4021b8:	48 89 fb             	mov    %rdi,%rbx
  4021bb:	49 89 f5             	mov    %rsi,%r13
  4021be:	49 89 d4             	mov    %rdx,%r12
  4021c1:	eb 2e                	jmp    4021f1 <rio_read+0x43>
  4021c3:	48 8d 6b 10          	lea    0x10(%rbx),%rbp
  4021c7:	8b 3b                	mov    (%rbx),%edi
  4021c9:	ba 00 20 00 00       	mov    $0x2000,%edx
  4021ce:	48 89 ee             	mov    %rbp,%rsi
  4021d1:	e8 9a ea ff ff       	call   400c70 <read@plt>
  4021d6:	89 43 04             	mov    %eax,0x4(%rbx)
  4021d9:	85 c0                	test   %eax,%eax
  4021db:	79 0c                	jns    4021e9 <rio_read+0x3b>
  4021dd:	e8 de e9 ff ff       	call   400bc0 <__errno_location@plt>
  4021e2:	83 38 04             	cmpl   $0x4,(%rax)
  4021e5:	74 0a                	je     4021f1 <rio_read+0x43>
  4021e7:	eb 37                	jmp    402220 <rio_read+0x72>
  4021e9:	85 c0                	test   %eax,%eax
  4021eb:	74 3c                	je     402229 <rio_read+0x7b>
  4021ed:	48 89 6b 08          	mov    %rbp,0x8(%rbx)
  4021f1:	8b 6b 04             	mov    0x4(%rbx),%ebp
  4021f4:	85 ed                	test   %ebp,%ebp
  4021f6:	7e cb                	jle    4021c3 <rio_read+0x15>
  4021f8:	89 e8                	mov    %ebp,%eax
  4021fa:	49 39 c4             	cmp    %rax,%r12
  4021fd:	77 03                	ja     402202 <rio_read+0x54>
  4021ff:	44 89 e5             	mov    %r12d,%ebp
  402202:	4c 63 e5             	movslq %ebp,%r12
  402205:	48 8b 73 08          	mov    0x8(%rbx),%rsi
  402209:	4c 89 e2             	mov    %r12,%rdx
  40220c:	4c 89 ef             	mov    %r13,%rdi
  40220f:	e8 ac ea ff ff       	call   400cc0 <memcpy@plt>
  402214:	4c 01 63 08          	add    %r12,0x8(%rbx)
  402218:	29 6b 04             	sub    %ebp,0x4(%rbx)
  40221b:	4c 89 e0             	mov    %r12,%rax
  40221e:	eb 0e                	jmp    40222e <rio_read+0x80>
  402220:	48 c7 c0 ff ff ff ff 	mov    $0xffffffffffffffff,%rax
  402227:	eb 05                	jmp    40222e <rio_read+0x80>
  402229:	b8 00 00 00 00       	mov    $0x0,%eax
  40222e:	48 83 c4 08          	add    $0x8,%rsp
  402232:	5b                   	pop    %rbx
  402233:	5d                   	pop    %rbp
  402234:	41 5c                	pop    %r12
  402236:	41 5d                	pop    %r13
  402238:	c3                   	ret

0000000000402239 <rio_readlineb>:
  402239:	41 55                	push   %r13
  40223b:	41 54                	push   %r12
  40223d:	55                   	push   %rbp
  40223e:	53                   	push   %rbx
  40223f:	48 83 ec 18          	sub    $0x18,%rsp
  402243:	49 89 fd             	mov    %rdi,%r13
  402246:	48 89 f5             	mov    %rsi,%rbp
  402249:	49 89 d4             	mov    %rdx,%r12
  40224c:	64 48 8b 04 25 28 00 	mov    %fs:0x28,%rax
  402253:	00 00 
  402255:	48 89 44 24 08       	mov    %rax,0x8(%rsp)
  40225a:	31 c0                	xor    %eax,%eax
  40225c:	bb 01 00 00 00       	mov    $0x1,%ebx
  402261:	eb 3f                	jmp    4022a2 <rio_readlineb+0x69>
  402263:	ba 01 00 00 00       	mov    $0x1,%edx
  402268:	48 8d 74 24 07       	lea    0x7(%rsp),%rsi
  40226d:	4c 89 ef             	mov    %r13,%rdi
  402270:	e8 39 ff ff ff       	call   4021ae <rio_read>
  402275:	83 f8 01             	cmp    $0x1,%eax
  402278:	75 15                	jne    40228f <rio_readlineb+0x56>
  40227a:	48 8d 45 01          	lea    0x1(%rbp),%rax
  40227e:	0f b6 54 24 07       	movzbl 0x7(%rsp),%edx
  402283:	88 55 00             	mov    %dl,0x0(%rbp)
  402286:	80 7c 24 07 0a       	cmpb   $0xa,0x7(%rsp)
  40228b:	75 0e                	jne    40229b <rio_readlineb+0x62>
  40228d:	eb 1a                	jmp    4022a9 <rio_readlineb+0x70>
  40228f:	85 c0                	test   %eax,%eax
  402291:	75 22                	jne    4022b5 <rio_readlineb+0x7c>
  402293:	48 83 fb 01          	cmp    $0x1,%rbx
  402297:	75 13                	jne    4022ac <rio_readlineb+0x73>
  402299:	eb 23                	jmp    4022be <rio_readlineb+0x85>
  40229b:	48 83 c3 01          	add    $0x1,%rbx
  40229f:	48 89 c5             	mov    %rax,%rbp
  4022a2:	4c 39 e3             	cmp    %r12,%rbx
  4022a5:	72 bc                	jb     402263 <rio_readlineb+0x2a>
  4022a7:	eb 03                	jmp    4022ac <rio_readlineb+0x73>
  4022a9:	48 89 c5             	mov    %rax,%rbp
  4022ac:	c6 45 00 00          	movb   $0x0,0x0(%rbp)
  4022b0:	48 89 d8             	mov    %rbx,%rax
  4022b3:	eb 0e                	jmp    4022c3 <rio_readlineb+0x8a>
  4022b5:	48 c7 c0 ff ff ff ff 	mov    $0xffffffffffffffff,%rax
  4022bc:	eb 05                	jmp    4022c3 <rio_readlineb+0x8a>
  4022be:	b8 00 00 00 00       	mov    $0x0,%eax
  4022c3:	48 8b 4c 24 08       	mov    0x8(%rsp),%rcx
  4022c8:	64 48 33 0c 25 28 00 	xor    %fs:0x28,%rcx
  4022cf:	00 00 
  4022d1:	74 05                	je     4022d8 <rio_readlineb+0x9f>
  4022d3:	e8 48 e9 ff ff       	call   400c20 <__stack_chk_fail@plt>
  4022d8:	48 83 c4 18          	add    $0x18,%rsp
  4022dc:	5b                   	pop    %rbx
  4022dd:	5d                   	pop    %rbp
  4022de:	41 5c                	pop    %r12
  4022e0:	41 5d                	pop    %r13
  4022e2:	c3                   	ret

00000000004022e3 <urlencode>:
  4022e3:	41 54                	push   %r12
  4022e5:	55                   	push   %rbp
  4022e6:	53                   	push   %rbx
  4022e7:	48 83 ec 10          	sub    $0x10,%rsp
  4022eb:	48 89 fb             	mov    %rdi,%rbx
  4022ee:	48 89 f5             	mov    %rsi,%rbp
  4022f1:	64 48 8b 04 25 28 00 	mov    %fs:0x28,%rax
  4022f8:	00 00 
  4022fa:	48 89 44 24 08       	mov    %rax,0x8(%rsp)
  4022ff:	31 c0                	xor    %eax,%eax
  402301:	48 c7 c1 ff ff ff ff 	mov    $0xffffffffffffffff,%rcx
  402308:	f2 ae                	repnz scas %es:(%rdi),%al
  40230a:	48 f7 d1             	not    %rcx
  40230d:	8d 41 ff             	lea    -0x1(%rcx),%eax
  402310:	e9 aa 00 00 00       	jmp    4023bf <urlencode+0xdc>
  402315:	44 0f b6 03          	movzbl (%rbx),%r8d
  402319:	41 80 f8 2a          	cmp    $0x2a,%r8b
  40231d:	0f 94 c2             	sete   %dl
  402320:	41 80 f8 2d          	cmp    $0x2d,%r8b
  402324:	0f 94 c0             	sete   %al
  402327:	08 c2                	or     %al,%dl
  402329:	75 24                	jne    40234f <urlencode+0x6c>
  40232b:	41 80 f8 2e          	cmp    $0x2e,%r8b
  40232f:	74 1e                	je     40234f <urlencode+0x6c>
  402331:	41 80 f8 5f          	cmp    $0x5f,%r8b
  402335:	74 18                	je     40234f <urlencode+0x6c>
  402337:	41 8d 40 d0          	lea    -0x30(%r8),%eax
  40233b:	3c 09                	cmp    $0x9,%al
  40233d:	76 10                	jbe    40234f <urlencode+0x6c>
  40233f:	41 8d 40 bf          	lea    -0x41(%r8),%eax
  402343:	3c 19                	cmp    $0x19,%al
  402345:	76 08                	jbe    40234f <urlencode+0x6c>
  402347:	41 8d 40 9f          	lea    -0x61(%r8),%eax
  40234b:	3c 19                	cmp    $0x19,%al
  40234d:	77 0a                	ja     402359 <urlencode+0x76>
  40234f:	44 88 45 00          	mov    %r8b,0x0(%rbp)
  402353:	48 8d 6d 01          	lea    0x1(%rbp),%rbp
  402357:	eb 5f                	jmp    4023b8 <urlencode+0xd5>
  402359:	41 80 f8 20          	cmp    $0x20,%r8b
  40235d:	75 0a                	jne    402369 <urlencode+0x86>
  40235f:	c6 45 00 2b          	movb   $0x2b,0x0(%rbp)
  402363:	48 8d 6d 01          	lea    0x1(%rbp),%rbp
  402367:	eb 4f                	jmp    4023b8 <urlencode+0xd5>
  402369:	41 8d 40 e0          	lea    -0x20(%r8),%eax
  40236d:	3c 5f                	cmp    $0x5f,%al
  40236f:	0f 96 c2             	setbe  %dl
  402372:	41 80 f8 09          	cmp    $0x9,%r8b
  402376:	0f 94 c0             	sete   %al
  402379:	08 c2                	or     %al,%dl
  40237b:	74 50                	je     4023cd <urlencode+0xea>
  40237d:	45 0f b6 c0          	movzbl %r8b,%r8d
  402381:	b9 28 35 40 00       	mov    $0x403528,%ecx
  402386:	ba 08 00 00 00       	mov    $0x8,%edx
  40238b:	be 01 00 00 00       	mov    $0x1,%esi
  402390:	48 89 e7             	mov    %rsp,%rdi
  402393:	b8 00 00 00 00       	mov    $0x0,%eax
  402398:	e8 f3 e9 ff ff       	call   400d90 <__sprintf_chk@plt>
  40239d:	0f b6 04 24          	movzbl (%rsp),%eax
  4023a1:	88 45 00             	mov    %al,0x0(%rbp)
  4023a4:	0f b6 44 24 01       	movzbl 0x1(%rsp),%eax
  4023a9:	88 45 01             	mov    %al,0x1(%rbp)
  4023ac:	0f b6 44 24 02       	movzbl 0x2(%rsp),%eax
  4023b1:	88 45 02             	mov    %al,0x2(%rbp)
  4023b4:	48 8d 6d 03          	lea    0x3(%rbp),%rbp
  4023b8:	48 83 c3 01          	add    $0x1,%rbx
  4023bc:	44 89 e0             	mov    %r12d,%eax
  4023bf:	44 8d 60 ff          	lea    -0x1(%rax),%r12d
  4023c3:	85 c0                	test   %eax,%eax
  4023c5:	0f 85 4a ff ff ff    	jne    402315 <urlencode+0x32>
  4023cb:	eb 05                	jmp    4023d2 <urlencode+0xef>
  4023cd:	b8 ff ff ff ff       	mov    $0xffffffff,%eax
  4023d2:	48 8b 74 24 08       	mov    0x8(%rsp),%rsi
  4023d7:	64 48 33 34 25 28 00 	xor    %fs:0x28,%rsi
  4023de:	00 00 
  4023e0:	74 05                	je     4023e7 <urlencode+0x104>
  4023e2:	e8 39 e8 ff ff       	call   400c20 <__stack_chk_fail@plt>
  4023e7:	48 83 c4 10          	add    $0x10,%rsp
  4023eb:	5b                   	pop    %rbx
  4023ec:	5d                   	pop    %rbp
  4023ed:	41 5c                	pop    %r12
  4023ef:	c3                   	ret

00000000004023f0 <submitr>:
  4023f0:	41 57                	push   %r15
  4023f2:	41 56                	push   %r14
  4023f4:	41 55                	push   %r13
  4023f6:	41 54                	push   %r12
  4023f8:	55                   	push   %rbp
  4023f9:	53                   	push   %rbx
  4023fa:	48 81 ec 58 a0 00 00 	sub    $0xa058,%rsp
  402401:	49 89 ff             	mov    %rdi,%r15
  402404:	89 74 24 04          	mov    %esi,0x4(%rsp)
  402408:	49 89 d6             	mov    %rdx,%r14
  40240b:	49 89 cd             	mov    %rcx,%r13
  40240e:	4c 89 44 24 08       	mov    %r8,0x8(%rsp)
  402413:	4d 89 cc             	mov    %r9,%r12
  402416:	48 8b 9c 24 90 a0 00 	mov    0xa090(%rsp),%rbx
  40241d:	00 
  40241e:	64 48 8b 04 25 28 00 	mov    %fs:0x28,%rax
  402425:	00 00 
  402427:	48 89 84 24 48 a0 00 	mov    %rax,0xa048(%rsp)
  40242e:	00 
  40242f:	31 c0                	xor    %eax,%eax
  402431:	c7 44 24 1c 00 00 00 	movl   $0x0,0x1c(%rsp)
  402438:	00 
  402439:	ba 00 00 00 00       	mov    $0x0,%edx
  40243e:	be 01 00 00 00       	mov    $0x1,%esi
  402443:	bf 02 00 00 00       	mov    $0x2,%edi
  402448:	e8 53 e9 ff ff       	call   400da0 <socket@plt>
  40244d:	85 c0                	test   %eax,%eax
  40244f:	79 4e                	jns    40249f <submitr+0xaf>
  402451:	48 b8 45 72 72 6f 72 	movabs $0x43203a726f727245,%rax
  402458:	3a 20 43 
  40245b:	48 89 03             	mov    %rax,(%rbx)
  40245e:	48 b8 6c 69 65 6e 74 	movabs $0x6e7520746e65696c,%rax
  402465:	20 75 6e 
  402468:	48 89 43 08          	mov    %rax,0x8(%rbx)
  40246c:	48 b8 61 62 6c 65 20 	movabs $0x206f7420656c6261,%rax
  402473:	74 6f 20 
  402476:	48 89 43 10          	mov    %rax,0x10(%rbx)
  40247a:	48 b8 63 72 65 61 74 	movabs $0x7320657461657263,%rax
  402481:	65 20 73 
  402484:	48 89 43 18          	mov    %rax,0x18(%rbx)
  402488:	c7 43 20 6f 63 6b 65 	movl   $0x656b636f,0x20(%rbx)
  40248f:	66 c7 43 24 74 00    	movw   $0x74,0x24(%rbx)
  402495:	b8 ff ff ff ff       	mov    $0xffffffff,%eax
  40249a:	e9 0a 06 00 00       	jmp    402aa9 <submitr+0x6b9>
  40249f:	89 c5                	mov    %eax,%ebp
  4024a1:	66 c7 44 24 20 02 00 	movw   $0x2,0x20(%rsp)
  4024a8:	bf 88 30 40 00       	mov    $0x403088,%edi
  4024ad:	b8 00 00 00 00       	mov    $0x0,%eax
  4024b2:	e8 d9 e7 ff ff       	call   400c90 <inet_addr@plt>
  4024b7:	89 44 24 24          	mov    %eax,0x24(%rsp)
  4024bb:	0f b7 44 24 04       	movzwl 0x4(%rsp),%eax
  4024c0:	66 c1 c8 08          	ror    $0x8,%ax
  4024c4:	66 89 44 24 22       	mov    %ax,0x22(%rsp)
  4024c9:	ba 10 00 00 00       	mov    $0x10,%edx
  4024ce:	48 8d 74 24 20       	lea    0x20(%rsp),%rsi
  4024d3:	89 ef                	mov    %ebp,%edi
  4024d5:	e8 96 e8 ff ff       	call   400d70 <connect@plt>
  4024da:	85 c0                	test   %eax,%eax
  4024dc:	79 59                	jns    402537 <submitr+0x147>
  4024de:	48 b8 45 72 72 6f 72 	movabs $0x55203a726f727245,%rax
  4024e5:	3a 20 55 
  4024e8:	48 89 03             	mov    %rax,(%rbx)
  4024eb:	48 b8 6e 61 62 6c 65 	movabs $0x6f7420656c62616e,%rax
  4024f2:	20 74 6f 
  4024f5:	48 89 43 08          	mov    %rax,0x8(%rbx)
  4024f9:	48 b8 20 63 6f 6e 6e 	movabs $0x7463656e6e6f6320,%rax
  402500:	65 63 74 
  402503:	48 89 43 10          	mov    %rax,0x10(%rbx)
  402507:	48 b8 20 74 6f 20 74 	movabs $0x20656874206f7420,%rax
  40250e:	68 65 20 
  402511:	48 89 43 18          	mov    %rax,0x18(%rbx)
  402515:	c7 43 20 73 65 72 76 	movl   $0x76726573,0x20(%rbx)
  40251c:	66 c7 43 24 65 72    	movw   $0x7265,0x24(%rbx)
  402522:	c6 43 26 00          	movb   $0x0,0x26(%rbx)
  402526:	89 ef                	mov    %ebp,%edi
  402528:	e8 33 e7 ff ff       	call   400c60 <close@plt>
  40252d:	b8 ff ff ff ff       	mov    $0xffffffff,%eax
  402532:	e9 72 05 00 00       	jmp    402aa9 <submitr+0x6b9>
  402537:	48 c7 c6 ff ff ff ff 	mov    $0xffffffffffffffff,%rsi
  40253e:	b8 00 00 00 00       	mov    $0x0,%eax
  402543:	48 89 f1             	mov    %rsi,%rcx
  402546:	4c 89 e7             	mov    %r12,%rdi
  402549:	f2 ae                	repnz scas %es:(%rdi),%al
  40254b:	48 f7 d1             	not    %rcx
  40254e:	48 89 ca             	mov    %rcx,%rdx
  402551:	48 89 f1             	mov    %rsi,%rcx
  402554:	4c 89 f7             	mov    %r14,%rdi
  402557:	f2 ae                	repnz scas %es:(%rdi),%al
  402559:	48 f7 d1             	not    %rcx
  40255c:	49 89 c8             	mov    %rcx,%r8
  40255f:	48 89 f1             	mov    %rsi,%rcx
  402562:	4c 89 ef             	mov    %r13,%rdi
  402565:	f2 ae                	repnz scas %es:(%rdi),%al
  402567:	48 f7 d1             	not    %rcx
  40256a:	4d 8d 44 08 fe       	lea    -0x2(%r8,%rcx,1),%r8
  40256f:	48 89 f1             	mov    %rsi,%rcx
  402572:	48 8b 7c 24 08       	mov    0x8(%rsp),%rdi
  402577:	f2 ae                	repnz scas %es:(%rdi),%al
  402579:	48 89 c8             	mov    %rcx,%rax
  40257c:	48 f7 d0             	not    %rax
  40257f:	49 8d 4c 00 ff       	lea    -0x1(%r8,%rax,1),%rcx
  402584:	48 8d 44 52 fd       	lea    -0x3(%rdx,%rdx,2),%rax
  402589:	48 8d 84 01 80 00 00 	lea    0x80(%rcx,%rax,1),%rax
  402590:	00 
  402591:	48 3d 00 20 00 00    	cmp    $0x2000,%rax
  402597:	76 72                	jbe    40260b <submitr+0x21b>
  402599:	48 b8 45 72 72 6f 72 	movabs $0x52203a726f727245,%rax
  4025a0:	3a 20 52 
  4025a3:	48 89 03             	mov    %rax,(%rbx)
  4025a6:	48 b8 65 73 75 6c 74 	movabs $0x747320746c757365,%rax
  4025ad:	20 73 74 
  4025b0:	48 89 43 08          	mov    %rax,0x8(%rbx)
  4025b4:	48 b8 72 69 6e 67 20 	movabs $0x6f6f7420676e6972,%rax
  4025bb:	74 6f 6f 
  4025be:	48 89 43 10          	mov    %rax,0x10(%rbx)
  4025c2:	48 b8 20 6c 61 72 67 	movabs $0x202e656772616c20,%rax
  4025c9:	65 2e 20 
  4025cc:	48 89 43 18          	mov    %rax,0x18(%rbx)
  4025d0:	48 b8 49 6e 63 72 65 	movabs $0x6573616572636e49,%rax
  4025d7:	61 73 65 
  4025da:	48 89 43 20          	mov    %rax,0x20(%rbx)
  4025de:	48 b8 20 53 55 42 4d 	movabs $0x5254494d42555320,%rax
  4025e5:	49 54 52 
  4025e8:	48 89 43 28          	mov    %rax,0x28(%rbx)
  4025ec:	48 b8 5f 4d 41 58 42 	movabs $0x46554258414d5f,%rax
  4025f3:	55 46 00 
  4025f6:	48 89 43 30          	mov    %rax,0x30(%rbx)
  4025fa:	89 ef                	mov    %ebp,%edi
  4025fc:	e8 5f e6 ff ff       	call   400c60 <close@plt>
  402601:	b8 ff ff ff ff       	mov    $0xffffffff,%eax
  402606:	e9 9e 04 00 00       	jmp    402aa9 <submitr+0x6b9>
  40260b:	48 8d b4 24 40 40 00 	lea    0x4040(%rsp),%rsi
  402612:	00 
  402613:	b9 00 04 00 00       	mov    $0x400,%ecx
  402618:	b8 00 00 00 00       	mov    $0x0,%eax
  40261d:	48 89 f7             	mov    %rsi,%rdi
  402620:	f3 48 ab             	rep stos %rax,%es:(%rdi)
  402623:	4c 89 e7             	mov    %r12,%rdi
  402626:	e8 b8 fc ff ff       	call   4022e3 <urlencode>
  40262b:	85 c0                	test   %eax,%eax
  40262d:	0f 89 8a 00 00 00    	jns    4026bd <submitr+0x2cd>
  402633:	48 b8 45 72 72 6f 72 	movabs $0x52203a726f727245,%rax
  40263a:	3a 20 52 
  40263d:	48 89 03             	mov    %rax,(%rbx)
  402640:	48 b8 65 73 75 6c 74 	movabs $0x747320746c757365,%rax
  402647:	20 73 74 
  40264a:	48 89 43 08          	mov    %rax,0x8(%rbx)
  40264e:	48 b8 72 69 6e 67 20 	movabs $0x6e6f6320676e6972,%rax
  402655:	63 6f 6e 
  402658:	48 89 43 10          	mov    %rax,0x10(%rbx)
  40265c:	48 b8 74 61 69 6e 73 	movabs $0x6e6120736e696174,%rax
  402663:	20 61 6e 
  402666:	48 89 43 18          	mov    %rax,0x18(%rbx)
  40266a:	48 b8 20 69 6c 6c 65 	movabs $0x6c6167656c6c6920,%rax
  402671:	67 61 6c 
  402674:	48 89 43 20          	mov    %rax,0x20(%rbx)
  402678:	48 b8 20 6f 72 20 75 	movabs $0x72706e7520726f20,%rax
  40267f:	6e 70 72 
  402682:	48 89 43 28          	mov    %rax,0x28(%rbx)
  402686:	48 b8 69 6e 74 61 62 	movabs $0x20656c6261746e69,%rax
  40268d:	6c 65 20 
  402690:	48 89 43 30          	mov    %rax,0x30(%rbx)
  402694:	48 b8 63 68 61 72 61 	movabs $0x6574636172616863,%rax
  40269b:	63 74 65 
  40269e:	48 89 43 38          	mov    %rax,0x38(%rbx)
  4026a2:	66 c7 43 40 72 2e    	movw   $0x2e72,0x40(%rbx)
  4026a8:	c6 43 42 00          	movb   $0x0,0x42(%rbx)
  4026ac:	89 ef                	mov    %ebp,%edi
  4026ae:	e8 ad e5 ff ff       	call   400c60 <close@plt>
  4026b3:	b8 ff ff ff ff       	mov    $0xffffffff,%eax
  4026b8:	e9 ec 03 00 00       	jmp    402aa9 <submitr+0x6b9>
  4026bd:	4c 8d a4 24 40 20 00 	lea    0x2040(%rsp),%r12
  4026c4:	00 
  4026c5:	41 57                	push   %r15
  4026c7:	48 8d 84 24 48 40 00 	lea    0x4048(%rsp),%rax
  4026ce:	00 
  4026cf:	50                   	push   %rax
  4026d0:	4d 89 f1             	mov    %r14,%r9
  4026d3:	4d 89 e8             	mov    %r13,%r8
  4026d6:	b9 b8 34 40 00       	mov    $0x4034b8,%ecx
  4026db:	ba 00 20 00 00       	mov    $0x2000,%edx
  4026e0:	be 01 00 00 00       	mov    $0x1,%esi
  4026e5:	4c 89 e7             	mov    %r12,%rdi
  4026e8:	b8 00 00 00 00       	mov    $0x0,%eax
  4026ed:	e8 9e e6 ff ff       	call   400d90 <__sprintf_chk@plt>
  4026f2:	b8 00 00 00 00       	mov    $0x0,%eax
  4026f7:	48 c7 c1 ff ff ff ff 	mov    $0xffffffffffffffff,%rcx
  4026fe:	4c 89 e7             	mov    %r12,%rdi
  402701:	f2 ae                	repnz scas %es:(%rdi),%al
  402703:	48 f7 d1             	not    %rcx
  402706:	48 8d 51 ff          	lea    -0x1(%rcx),%rdx
  40270a:	4c 89 e6             	mov    %r12,%rsi
  40270d:	89 ef                	mov    %ebp,%edi
  40270f:	e8 3e fa ff ff       	call   402152 <rio_writen>
  402714:	48 83 c4 10          	add    $0x10,%rsp
  402718:	48 85 c0             	test   %rax,%rax
  40271b:	79 6e                	jns    40278b <submitr+0x39b>
  40271d:	48 b8 45 72 72 6f 72 	movabs $0x43203a726f727245,%rax
  402724:	3a 20 43 
  402727:	48 89 03             	mov    %rax,(%rbx)
  40272a:	48 b8 6c 69 65 6e 74 	movabs $0x6e7520746e65696c,%rax
  402731:	20 75 6e 
  402734:	48 89 43 08          	mov    %rax,0x8(%rbx)
  402738:	48 b8 61 62 6c 65 20 	movabs $0x206f7420656c6261,%rax
  40273f:	74 6f 20 
  402742:	48 89 43 10          	mov    %rax,0x10(%rbx)
  402746:	48 b8 77 72 69 74 65 	movabs $0x6f74206574697277,%rax
  40274d:	20 74 6f 
  402750:	48 89 43 18          	mov    %rax,0x18(%rbx)
  402754:	48 b8 20 74 68 65 20 	movabs $0x7365722065687420,%rax
  40275b:	72 65 73 
  40275e:	48 89 43 20          	mov    %rax,0x20(%rbx)
  402762:	48 b8 75 6c 74 20 73 	movabs $0x7672657320746c75,%rax
  402769:	65 72 76 
  40276c:	48 89 43 28          	mov    %rax,0x28(%rbx)
  402770:	66 c7 43 30 65 72    	movw   $0x7265,0x30(%rbx)
  402776:	c6 43 32 00          	movb   $0x0,0x32(%rbx)
  40277a:	89 ef                	mov    %ebp,%edi
  40277c:	e8 df e4 ff ff       	call   400c60 <close@plt>
  402781:	b8 ff ff ff ff       	mov    $0xffffffff,%eax
  402786:	e9 1e 03 00 00       	jmp    402aa9 <submitr+0x6b9>
  40278b:	89 ee                	mov    %ebp,%esi
  40278d:	48 8d 7c 24 30       	lea    0x30(%rsp),%rdi
  402792:	e8 7b f9 ff ff       	call   402112 <rio_readinitb>
  402797:	ba 00 20 00 00       	mov    $0x2000,%edx
  40279c:	48 8d b4 24 40 20 00 	lea    0x2040(%rsp),%rsi
  4027a3:	00 
  4027a4:	48 8d 7c 24 30       	lea    0x30(%rsp),%rdi
  4027a9:	e8 8b fa ff ff       	call   402239 <rio_readlineb>
  4027ae:	48 85 c0             	test   %rax,%rax
  4027b1:	7f 7d                	jg     402830 <submitr+0x440>
  4027b3:	48 b8 45 72 72 6f 72 	movabs $0x43203a726f727245,%rax
  4027ba:	3a 20 43 
  4027bd:	48 89 03             	mov    %rax,(%rbx)
  4027c0:	48 b8 6c 69 65 6e 74 	movabs $0x6e7520746e65696c,%rax
  4027c7:	20 75 6e 
  4027ca:	48 89 43 08          	mov    %rax,0x8(%rbx)
  4027ce:	48 b8 61 62 6c 65 20 	movabs $0x206f7420656c6261,%rax
  4027d5:	74 6f 20 
  4027d8:	48 89 43 10          	mov    %rax,0x10(%rbx)
  4027dc:	48 b8 72 65 61 64 20 	movabs $0x7269662064616572,%rax
  4027e3:	66 69 72 
  4027e6:	48 89 43 18          	mov    %rax,0x18(%rbx)
  4027ea:	48 b8 73 74 20 68 65 	movabs $0x6564616568207473,%rax
  4027f1:	61 64 65 
  4027f4:	48 89 43 20          	mov    %rax,0x20(%rbx)
  4027f8:	48 b8 72 20 66 72 6f 	movabs $0x72206d6f72662072,%rax
  4027ff:	6d 20 72 
  402802:	48 89 43 28          	mov    %rax,0x28(%rbx)
  402806:	48 b8 65 73 75 6c 74 	movabs $0x657320746c757365,%rax
  40280d:	20 73 65 
  402810:	48 89 43 30          	mov    %rax,0x30(%rbx)
  402814:	c7 43 38 72 76 65 72 	movl   $0x72657672,0x38(%rbx)
  40281b:	c6 43 3c 00          	movb   $0x0,0x3c(%rbx)
  40281f:	89 ef                	mov    %ebp,%edi
  402821:	e8 3a e4 ff ff       	call   400c60 <close@plt>
  402826:	b8 ff ff ff ff       	mov    $0xffffffff,%eax
  40282b:	e9 79 02 00 00       	jmp    402aa9 <submitr+0x6b9>
  402830:	4c 8d 84 24 40 80 00 	lea    0x8040(%rsp),%r8
  402837:	00 
  402838:	48 8d 4c 24 1c       	lea    0x1c(%rsp),%rcx
  40283d:	48 8d 94 24 40 60 00 	lea    0x6040(%rsp),%rdx
  402844:	00 
  402845:	be 2f 35 40 00       	mov    $0x40352f,%esi
  40284a:	48 8d bc 24 40 20 00 	lea    0x2040(%rsp),%rdi
  402851:	00 
  402852:	b8 00 00 00 00       	mov    $0x0,%eax
  402857:	e8 a4 e4 ff ff       	call   400d00 <__isoc99_sscanf@plt>
  40285c:	e9 95 00 00 00       	jmp    4028f6 <submitr+0x506>
  402861:	ba 00 20 00 00       	mov    $0x2000,%edx
  402866:	48 8d b4 24 40 20 00 	lea    0x2040(%rsp),%rsi
  40286d:	00 
  40286e:	48 8d 7c 24 30       	lea    0x30(%rsp),%rdi
  402873:	e8 c1 f9 ff ff       	call   402239 <rio_readlineb>
  402878:	48 85 c0             	test   %rax,%rax
  40287b:	7f 79                	jg     4028f6 <submitr+0x506>
  40287d:	48 b8 45 72 72 6f 72 	movabs $0x43203a726f727245,%rax
  402884:	3a 20 43 
  402887:	48 89 03             	mov    %rax,(%rbx)
  40288a:	48 b8 6c 69 65 6e 74 	movabs $0x6e7520746e65696c,%rax
  402891:	20 75 6e 
  402894:	48 89 43 08          	mov    %rax,0x8(%rbx)
  402898:	48 b8 61 62 6c 65 20 	movabs $0x206f7420656c6261,%rax
  40289f:	74 6f 20 
  4028a2:	48 89 43 10          	mov    %rax,0x10(%rbx)
  4028a6:	48 b8 72 65 61 64 20 	movabs $0x6165682064616572,%rax
  4028ad:	68 65 61 
  4028b0:	48 89 43 18          	mov    %rax,0x18(%rbx)
  4028b4:	48 b8 64 65 72 73 20 	movabs $0x6f72662073726564,%rax
  4028bb:	66 72 6f 
  4028be:	48 89 43 20          	mov    %rax,0x20(%rbx)
  4028c2:	48 b8 6d 20 74 68 65 	movabs $0x657220656874206d,%rax
  4028c9:	20 72 65 
  4028cc:	48 89 43 28          	mov    %rax,0x28(%rbx)
  4028d0:	48 b8 73 75 6c 74 20 	movabs $0x72657320746c7573,%rax
  4028d7:	73 65 72 
  4028da:	48 89 43 30          	mov    %rax,0x30(%rbx)
  4028de:	c7 43 38 76 65 72 00 	movl   $0x726576,0x38(%rbx)
  4028e5:	89 ef                	mov    %ebp,%edi
  4028e7:	e8 74 e3 ff ff       	call   400c60 <close@plt>
  4028ec:	b8 ff ff ff ff       	mov    $0xffffffff,%eax
  4028f1:	e9 b3 01 00 00       	jmp    402aa9 <submitr+0x6b9>
  4028f6:	0f b6 94 24 40 20 00 	movzbl 0x2040(%rsp),%edx
  4028fd:	00 
  4028fe:	b8 0d 00 00 00       	mov    $0xd,%eax
  402903:	29 d0                	sub    %edx,%eax
  402905:	75 1b                	jne    402922 <submitr+0x532>
  402907:	0f b6 94 24 41 20 00 	movzbl 0x2041(%rsp),%edx
  40290e:	00 
  40290f:	b8 0a 00 00 00       	mov    $0xa,%eax
  402914:	29 d0                	sub    %edx,%eax
  402916:	75 0a                	jne    402922 <submitr+0x532>
  402918:	0f b6 84 24 42 20 00 	movzbl 0x2042(%rsp),%eax
  40291f:	00 
  402920:	f7 d8                	neg    %eax
  402922:	85 c0                	test   %eax,%eax
  402924:	0f 85 37 ff ff ff    	jne    402861 <submitr+0x471>
  40292a:	ba 00 20 00 00       	mov    $0x2000,%edx
  40292f:	48 8d b4 24 40 20 00 	lea    0x2040(%rsp),%rsi
  402936:	00 
  402937:	48 8d 7c 24 30       	lea    0x30(%rsp),%rdi
  40293c:	e8 f8 f8 ff ff       	call   402239 <rio_readlineb>
  402941:	48 85 c0             	test   %rax,%rax
  402944:	0f 8f 83 00 00 00    	jg     4029cd <submitr+0x5dd>
  40294a:	48 b8 45 72 72 6f 72 	movabs $0x43203a726f727245,%rax
  402951:	3a 20 43 
  402954:	48 89 03             	mov    %rax,(%rbx)
  402957:	48 b8 6c 69 65 6e 74 	movabs $0x6e7520746e65696c,%rax
  40295e:	20 75 6e 
  402961:	48 89 43 08          	mov    %rax,0x8(%rbx)
  402965:	48 b8 61 62 6c 65 20 	movabs $0x206f7420656c6261,%rax
  40296c:	74 6f 20 
  40296f:	48 89 43 10          	mov    %rax,0x10(%rbx)
  402973:	48 b8 72 65 61 64 20 	movabs $0x6174732064616572,%rax
  40297a:	73 74 61 
  40297d:	48 89 43 18          	mov    %rax,0x18(%rbx)
  402981:	48 b8 74 75 73 20 6d 	movabs $0x7373656d20737574,%rax
  402988:	65 73 73 
  40298b:	48 89 43 20          	mov    %rax,0x20(%rbx)
  40298f:	48 b8 61 67 65 20 66 	movabs $0x6d6f726620656761,%rax
  402996:	72 6f 6d 
  402999:	48 89 43 28          	mov    %rax,0x28(%rbx)
  40299d:	48 b8 20 72 65 73 75 	movabs $0x20746c7573657220,%rax
  4029a4:	6c 74 20 
  4029a7:	48 89 43 30          	mov    %rax,0x30(%rbx)
  4029ab:	c7 43 38 73 65 72 76 	movl   $0x76726573,0x38(%rbx)
  4029b2:	66 c7 43 3c 65 72    	movw   $0x7265,0x3c(%rbx)
  4029b8:	c6 43 3e 00          	movb   $0x0,0x3e(%rbx)
  4029bc:	89 ef                	mov    %ebp,%edi
  4029be:	e8 9d e2 ff ff       	call   400c60 <close@plt>
  4029c3:	b8 ff ff ff ff       	mov    $0xffffffff,%eax
  4029c8:	e9 dc 00 00 00       	jmp    402aa9 <submitr+0x6b9>
  4029cd:	44 8b 44 24 1c       	mov    0x1c(%rsp),%r8d
  4029d2:	41 81 f8 c8 00 00 00 	cmp    $0xc8,%r8d
  4029d9:	74 37                	je     402a12 <submitr+0x622>
  4029db:	4c 8d 8c 24 40 80 00 	lea    0x8040(%rsp),%r9
  4029e2:	00 
  4029e3:	b9 f8 34 40 00       	mov    $0x4034f8,%ecx
  4029e8:	48 c7 c2 ff ff ff ff 	mov    $0xffffffffffffffff,%rdx
  4029ef:	be 01 00 00 00       	mov    $0x1,%esi
  4029f4:	48 89 df             	mov    %rbx,%rdi
  4029f7:	b8 00 00 00 00       	mov    $0x0,%eax
  4029fc:	e8 8f e3 ff ff       	call   400d90 <__sprintf_chk@plt>
  402a01:	89 ef                	mov    %ebp,%edi
  402a03:	e8 58 e2 ff ff       	call   400c60 <close@plt>
  402a08:	b8 ff ff ff ff       	mov    $0xffffffff,%eax
  402a0d:	e9 97 00 00 00       	jmp    402aa9 <submitr+0x6b9>
  402a12:	48 8d b4 24 40 20 00 	lea    0x2040(%rsp),%rsi
  402a19:	00 
  402a1a:	48 89 df             	mov    %rbx,%rdi
  402a1d:	e8 ce e1 ff ff       	call   400bf0 <strcpy@plt>
  402a22:	89 ef                	mov    %ebp,%edi
  402a24:	e8 37 e2 ff ff       	call   400c60 <close@plt>
  402a29:	0f b6 03             	movzbl (%rbx),%eax
  402a2c:	ba 4f 00 00 00       	mov    $0x4f,%edx
  402a31:	29 c2                	sub    %eax,%edx
  402a33:	75 22                	jne    402a57 <submitr+0x667>
  402a35:	0f b6 4b 01          	movzbl 0x1(%rbx),%ecx
  402a39:	b8 4b 00 00 00       	mov    $0x4b,%eax
  402a3e:	29 c8                	sub    %ecx,%eax
  402a40:	75 17                	jne    402a59 <submitr+0x669>
  402a42:	0f b6 4b 02          	movzbl 0x2(%rbx),%ecx
  402a46:	b8 0a 00 00 00       	mov    $0xa,%eax
  402a4b:	29 c8                	sub    %ecx,%eax
  402a4d:	75 0a                	jne    402a59 <submitr+0x669>
  402a4f:	0f b6 43 03          	movzbl 0x3(%rbx),%eax
  402a53:	f7 d8                	neg    %eax
  402a55:	eb 02                	jmp    402a59 <submitr+0x669>
  402a57:	89 d0                	mov    %edx,%eax
  402a59:	85 c0                	test   %eax,%eax
  402a5b:	74 40                	je     402a9d <submitr+0x6ad>
  402a5d:	bf 40 35 40 00       	mov    $0x403540,%edi
  402a62:	b9 05 00 00 00       	mov    $0x5,%ecx
  402a67:	48 89 de             	mov    %rbx,%rsi
  402a6a:	f3 a6                	repz cmpsb %es:(%rdi),%ds:(%rsi)
  402a6c:	0f 97 c0             	seta   %al
  402a6f:	0f 92 c1             	setb   %cl
  402a72:	29 c8                	sub    %ecx,%eax
  402a74:	0f be c0             	movsbl %al,%eax
  402a77:	85 c0                	test   %eax,%eax
  402a79:	74 2e                	je     402aa9 <submitr+0x6b9>
  402a7b:	85 d2                	test   %edx,%edx
  402a7d:	75 13                	jne    402a92 <submitr+0x6a2>
  402a7f:	0f b6 43 01          	movzbl 0x1(%rbx),%eax
  402a83:	ba 4b 00 00 00       	mov    $0x4b,%edx
  402a88:	29 c2                	sub    %eax,%edx
  402a8a:	75 06                	jne    402a92 <submitr+0x6a2>
  402a8c:	0f b6 53 02          	movzbl 0x2(%rbx),%edx
  402a90:	f7 da                	neg    %edx
  402a92:	85 d2                	test   %edx,%edx
  402a94:	75 0e                	jne    402aa4 <submitr+0x6b4>
  402a96:	b8 00 00 00 00       	mov    $0x0,%eax
  402a9b:	eb 0c                	jmp    402aa9 <submitr+0x6b9>
  402a9d:	b8 00 00 00 00       	mov    $0x0,%eax
  402aa2:	eb 05                	jmp    402aa9 <submitr+0x6b9>
  402aa4:	b8 ff ff ff ff       	mov    $0xffffffff,%eax
  402aa9:	48 8b 9c 24 48 a0 00 	mov    0xa048(%rsp),%rbx
  402ab0:	00 
  402ab1:	64 48 33 1c 25 28 00 	xor    %fs:0x28,%rbx
  402ab8:	00 00 
  402aba:	74 05                	je     402ac1 <submitr+0x6d1>
  402abc:	e8 5f e1 ff ff       	call   400c20 <__stack_chk_fail@plt>
  402ac1:	48 81 c4 58 a0 00 00 	add    $0xa058,%rsp
  402ac8:	5b                   	pop    %rbx
  402ac9:	5d                   	pop    %rbp
  402aca:	41 5c                	pop    %r12
  402acc:	41 5d                	pop    %r13
  402ace:	41 5e                	pop    %r14
  402ad0:	41 5f                	pop    %r15
  402ad2:	c3                   	ret

0000000000402ad3 <init_timeout>:
  402ad3:	85 ff                	test   %edi,%edi
  402ad5:	74 23                	je     402afa <init_timeout+0x27>
  402ad7:	53                   	push   %rbx
  402ad8:	89 fb                	mov    %edi,%ebx
  402ada:	85 ff                	test   %edi,%edi
  402adc:	79 05                	jns    402ae3 <init_timeout+0x10>
  402ade:	bb 00 00 00 00       	mov    $0x0,%ebx
  402ae3:	be 24 21 40 00       	mov    $0x402124,%esi
  402ae8:	bf 0e 00 00 00       	mov    $0xe,%edi
  402aed:	e8 ae e1 ff ff       	call   400ca0 <signal@plt>
  402af2:	89 df                	mov    %ebx,%edi
  402af4:	e8 57 e1 ff ff       	call   400c50 <alarm@plt>
  402af9:	5b                   	pop    %rbx
  402afa:	f3 c3                	repz ret

0000000000402afc <init_driver>:
  402afc:	55                   	push   %rbp
  402afd:	53                   	push   %rbx
  402afe:	48 83 ec 28          	sub    $0x28,%rsp
  402b02:	48 89 fd             	mov    %rdi,%rbp
  402b05:	64 48 8b 04 25 28 00 	mov    %fs:0x28,%rax
  402b0c:	00 00 
  402b0e:	48 89 44 24 18       	mov    %rax,0x18(%rsp)
  402b13:	31 c0                	xor    %eax,%eax
  402b15:	be 01 00 00 00       	mov    $0x1,%esi
  402b1a:	bf 0d 00 00 00       	mov    $0xd,%edi
  402b1f:	e8 7c e1 ff ff       	call   400ca0 <signal@plt>
  402b24:	be 01 00 00 00       	mov    $0x1,%esi
  402b29:	bf 1d 00 00 00       	mov    $0x1d,%edi
  402b2e:	e8 6d e1 ff ff       	call   400ca0 <signal@plt>
  402b33:	be 01 00 00 00       	mov    $0x1,%esi
  402b38:	bf 1d 00 00 00       	mov    $0x1d,%edi
  402b3d:	e8 5e e1 ff ff       	call   400ca0 <signal@plt>
  402b42:	ba 00 00 00 00       	mov    $0x0,%edx
  402b47:	be 01 00 00 00       	mov    $0x1,%esi
  402b4c:	bf 02 00 00 00       	mov    $0x2,%edi
  402b51:	e8 4a e2 ff ff       	call   400da0 <socket@plt>
  402b56:	85 c0                	test   %eax,%eax
  402b58:	79 4f                	jns    402ba9 <init_driver+0xad>
  402b5a:	48 b8 45 72 72 6f 72 	movabs $0x43203a726f727245,%rax
  402b61:	3a 20 43 
  402b64:	48 89 45 00          	mov    %rax,0x0(%rbp)
  402b68:	48 b8 6c 69 65 6e 74 	movabs $0x6e7520746e65696c,%rax
  402b6f:	20 75 6e 
  402b72:	48 89 45 08          	mov    %rax,0x8(%rbp)
  402b76:	48 b8 61 62 6c 65 20 	movabs $0x206f7420656c6261,%rax
  402b7d:	74 6f 20 
  402b80:	48 89 45 10          	mov    %rax,0x10(%rbp)
  402b84:	48 b8 63 72 65 61 74 	movabs $0x7320657461657263,%rax
  402b8b:	65 20 73 
  402b8e:	48 89 45 18          	mov    %rax,0x18(%rbp)
  402b92:	c7 45 20 6f 63 6b 65 	movl   $0x656b636f,0x20(%rbp)
  402b99:	66 c7 45 24 74 00    	movw   $0x74,0x24(%rbp)
  402b9f:	b8 ff ff ff ff       	mov    $0xffffffff,%eax
  402ba4:	e9 9b 00 00 00       	jmp    402c44 <init_driver+0x148>
  402ba9:	89 c3                	mov    %eax,%ebx
  402bab:	66 c7 04 24 02 00    	movw   $0x2,(%rsp)
  402bb1:	bf 88 30 40 00       	mov    $0x403088,%edi
  402bb6:	b8 00 00 00 00       	mov    $0x0,%eax
  402bbb:	e8 d0 e0 ff ff       	call   400c90 <inet_addr@plt>
  402bc0:	89 44 24 04          	mov    %eax,0x4(%rsp)
  402bc4:	66 c7 44 24 02 3c 9a 	movw   $0x9a3c,0x2(%rsp)
  402bcb:	ba 10 00 00 00       	mov    $0x10,%edx
  402bd0:	48 89 e6             	mov    %rsp,%rsi
  402bd3:	89 df                	mov    %ebx,%edi
  402bd5:	e8 96 e1 ff ff       	call   400d70 <connect@plt>
  402bda:	85 c0                	test   %eax,%eax
  402bdc:	79 50                	jns    402c2e <init_driver+0x132>
  402bde:	48 b8 45 72 72 6f 72 	movabs $0x55203a726f727245,%rax
  402be5:	3a 20 55 
  402be8:	48 89 45 00          	mov    %rax,0x0(%rbp)
  402bec:	48 b8 6e 61 62 6c 65 	movabs $0x6f7420656c62616e,%rax
  402bf3:	20 74 6f 
  402bf6:	48 89 45 08          	mov    %rax,0x8(%rbp)
  402bfa:	48 b8 20 63 6f 6e 6e 	movabs $0x7463656e6e6f6320,%rax
  402c01:	65 63 74 
  402c04:	48 89 45 10          	mov    %rax,0x10(%rbp)
  402c08:	48 b8 20 74 6f 20 73 	movabs $0x76726573206f7420,%rax
  402c0f:	65 72 76 
  402c12:	48 89 45 18          	mov    %rax,0x18(%rbp)
  402c16:	66 c7 45 20 65 72    	movw   $0x7265,0x20(%rbp)
  402c1c:	c6 45 22 00          	movb   $0x0,0x22(%rbp)
  402c20:	89 df                	mov    %ebx,%edi
  402c22:	e8 39 e0 ff ff       	call   400c60 <close@plt>
  402c27:	b8 ff ff ff ff       	mov    $0xffffffff,%eax
  402c2c:	eb 16                	jmp    402c44 <init_driver+0x148>
  402c2e:	89 df                	mov    %ebx,%edi
  402c30:	e8 2b e0 ff ff       	call   400c60 <close@plt>
  402c35:	66 c7 45 00 4f 4b    	movw   $0x4b4f,0x0(%rbp)
  402c3b:	c6 45 02 00          	movb   $0x0,0x2(%rbp)
  402c3f:	b8 00 00 00 00       	mov    $0x0,%eax
  402c44:	48 8b 4c 24 18       	mov    0x18(%rsp),%rcx
  402c49:	64 48 33 0c 25 28 00 	xor    %fs:0x28,%rcx
  402c50:	00 00 
  402c52:	74 05                	je     402c59 <init_driver+0x15d>
  402c54:	e8 c7 df ff ff       	call   400c20 <__stack_chk_fail@plt>
  402c59:	48 83 c4 28          	add    $0x28,%rsp
  402c5d:	5b                   	pop    %rbx
  402c5e:	5d                   	pop    %rbp
  402c5f:	c3                   	ret

0000000000402c60 <driver_post>:
  402c60:	53                   	push   %rbx
  402c61:	4c 89 cb             	mov    %r9,%rbx
  402c64:	45 85 c0             	test   %r8d,%r8d
  402c67:	74 27                	je     402c90 <driver_post+0x30>
  402c69:	48 89 ca             	mov    %rcx,%rdx
  402c6c:	be 45 35 40 00       	mov    $0x403545,%esi
  402c71:	bf 01 00 00 00       	mov    $0x1,%edi
  402c76:	b8 00 00 00 00       	mov    $0x0,%eax
  402c7b:	e8 a0 e0 ff ff       	call   400d20 <__printf_chk@plt>
  402c80:	66 c7 03 4f 4b       	movw   $0x4b4f,(%rbx)
  402c85:	c6 43 02 00          	movb   $0x0,0x2(%rbx)
  402c89:	b8 00 00 00 00       	mov    $0x0,%eax
  402c8e:	eb 3f                	jmp    402ccf <driver_post+0x6f>
  402c90:	48 85 ff             	test   %rdi,%rdi
  402c93:	74 2c                	je     402cc1 <driver_post+0x61>
  402c95:	80 3f 00             	cmpb   $0x0,(%rdi)
  402c98:	74 27                	je     402cc1 <driver_post+0x61>
  402c9a:	48 83 ec 08          	sub    $0x8,%rsp
  402c9e:	41 51                	push   %r9
  402ca0:	49 89 c9             	mov    %rcx,%r9
  402ca3:	49 89 d0             	mov    %rdx,%r8
  402ca6:	48 89 f9             	mov    %rdi,%rcx
  402ca9:	48 89 f2             	mov    %rsi,%rdx
  402cac:	be 9a 3c 00 00       	mov    $0x3c9a,%esi
  402cb1:	bf 88 30 40 00       	mov    $0x403088,%edi
  402cb6:	e8 35 f7 ff ff       	call   4023f0 <submitr>
  402cbb:	48 83 c4 10          	add    $0x10,%rsp
  402cbf:	eb 0e                	jmp    402ccf <driver_post+0x6f>
  402cc1:	66 c7 03 4f 4b       	movw   $0x4b4f,(%rbx)
  402cc6:	c6 43 02 00          	movb   $0x0,0x2(%rbx)
  402cca:	b8 00 00 00 00       	mov    $0x0,%eax
  402ccf:	5b                   	pop    %rbx
  402cd0:	c3                   	ret

0000000000402cd1 <check>:
  402cd1:	89 f8                	mov    %edi,%eax
  402cd3:	c1 e8 1c             	shr    $0x1c,%eax
  402cd6:	85 c0                	test   %eax,%eax
  402cd8:	74 1d                	je     402cf7 <check+0x26>
  402cda:	b9 00 00 00 00       	mov    $0x0,%ecx
  402cdf:	eb 0b                	jmp    402cec <check+0x1b>
  402ce1:	89 f8                	mov    %edi,%eax
  402ce3:	d3 e8                	shr    %cl,%eax
  402ce5:	3c 0a                	cmp    $0xa,%al
  402ce7:	74 14                	je     402cfd <check+0x2c>
  402ce9:	83 c1 08             	add    $0x8,%ecx
  402cec:	83 f9 1f             	cmp    $0x1f,%ecx
  402cef:	7e f0                	jle    402ce1 <check+0x10>
  402cf1:	b8 01 00 00 00       	mov    $0x1,%eax
  402cf6:	c3                   	ret
  402cf7:	b8 00 00 00 00       	mov    $0x0,%eax
  402cfc:	c3                   	ret
  402cfd:	b8 00 00 00 00       	mov    $0x0,%eax
  402d02:	c3                   	ret

0000000000402d03 <gencookie>:
  402d03:	53                   	push   %rbx
  402d04:	83 c7 01             	add    $0x1,%edi
  402d07:	e8 c4 de ff ff       	call   400bd0 <srandom@plt>
  402d0c:	e8 cf df ff ff       	call   400ce0 <random@plt>
  402d11:	89 c3                	mov    %eax,%ebx
  402d13:	89 c7                	mov    %eax,%edi
  402d15:	e8 b7 ff ff ff       	call   402cd1 <check>
  402d1a:	85 c0                	test   %eax,%eax
  402d1c:	74 ee                	je     402d0c <gencookie+0x9>
  402d1e:	89 d8                	mov    %ebx,%eax
  402d20:	5b                   	pop    %rbx
  402d21:	c3                   	ret
  402d22:	66 2e 0f 1f 84 00 00 	cs nopw 0x0(%rax,%rax,1)
  402d29:	00 00 00 
  402d2c:	0f 1f 40 00          	nopl   0x0(%rax)

0000000000402d30 <__libc_csu_init>:
  402d30:	41 57                	push   %r15
  402d32:	41 56                	push   %r14
  402d34:	41 89 ff             	mov    %edi,%r15d
  402d37:	41 55                	push   %r13
  402d39:	41 54                	push   %r12
  402d3b:	4c 8d 25 ce 20 20 00 	lea    0x2020ce(%rip),%r12        # 604e10 <__frame_dummy_init_array_entry>
  402d42:	55                   	push   %rbp
  402d43:	48 8d 2d ce 20 20 00 	lea    0x2020ce(%rip),%rbp        # 604e18 <__do_global_dtors_aux_fini_array_entry>
  402d4a:	53                   	push   %rbx
  402d4b:	49 89 f6             	mov    %rsi,%r14
  402d4e:	49 89 d5             	mov    %rdx,%r13
  402d51:	4c 29 e5             	sub    %r12,%rbp
  402d54:	48 83 ec 08          	sub    $0x8,%rsp
  402d58:	48 c1 fd 03          	sar    $0x3,%rbp
  402d5c:	e8 27 de ff ff       	call   400b88 <_init>
  402d61:	48 85 ed             	test   %rbp,%rbp
  402d64:	74 20                	je     402d86 <__libc_csu_init+0x56>
  402d66:	31 db                	xor    %ebx,%ebx
  402d68:	0f 1f 84 00 00 00 00 	nopl   0x0(%rax,%rax,1)
  402d6f:	00 
  402d70:	4c 89 ea             	mov    %r13,%rdx
  402d73:	4c 89 f6             	mov    %r14,%rsi
  402d76:	44 89 ff             	mov    %r15d,%edi
  402d79:	41 ff 14 dc          	call   *(%r12,%rbx,8)
  402d7d:	48 83 c3 01          	add    $0x1,%rbx
  402d81:	48 39 eb             	cmp    %rbp,%rbx
  402d84:	75 ea                	jne    402d70 <__libc_csu_init+0x40>
  402d86:	48 83 c4 08          	add    $0x8,%rsp
  402d8a:	5b                   	pop    %rbx
  402d8b:	5d                   	pop    %rbp
  402d8c:	41 5c                	pop    %r12
  402d8e:	41 5d                	pop    %r13
  402d90:	41 5e                	pop    %r14
  402d92:	41 5f                	pop    %r15
  402d94:	c3                   	ret
  402d95:	90                   	nop
  402d96:	66 2e 0f 1f 84 00 00 	cs nopw 0x0(%rax,%rax,1)
  402d9d:	00 00 00 

0000000000402da0 <__libc_csu_fini>:
  402da0:	f3 c3                	repz ret

Disassembly of section .fini:

0000000000402da4 <_fini>:
  402da4:	48 83 ec 08          	sub    $0x8,%rsp
  402da8:	48 83 c4 08          	add    $0x8,%rsp
  402dac:	c3                   	ret
